	.file	"Print.cpp"
__SP_H__ = 0x3e
__SP_L__ = 0x3d
__SREG__ = 0x3f
__tmp_reg__ = 0
__zero_reg__ = 1
	.text
.Ltext0:
	.cfi_sections	.debug_frame
	.section	.text._ZNK6String6lengthEv,"axG",@progbits,_ZNK6String6lengthEv,comdat
	.weak	_ZNK6String6lengthEv
	.type	_ZNK6String6lengthEv, @function
_ZNK6String6lengthEv:
.LFB25:
	.file 1 "/data/git/ECA-Arduino-Project/SoftwareSerial/WString.h"
	.loc 1 81 22
	.cfi_startproc
	push r28
	.cfi_def_cfa_offset 3
	.cfi_offset 28, -2
	push r29
	.cfi_def_cfa_offset 4
	.cfi_offset 29, -3
	rcall .
	.cfi_def_cfa_offset 6
	in r28,__SP_L__
	in r29,__SP_H__
	.cfi_def_cfa_register 28
/* prologue: function */
/* frame size = 2 */
/* stack size = 4 */
.L__stack_usage = 4
	std Y+2,r25
	std Y+1,r24
	.loc 1 81 49
	ldd r24,Y+1
	ldd r25,Y+2
	movw r30,r24
	ldd r24,Z+4
	ldd r25,Z+5
/* epilogue start */
	.loc 1 81 53
	pop __tmp_reg__
	pop __tmp_reg__
	pop r29
	pop r28
	ret
	.cfi_endproc
.LFE25:
	.size	_ZNK6String6lengthEv, .-_ZNK6String6lengthEv
	.section	.text._ZNK6String5c_strEv,"axG",@progbits,_ZNK6String5c_strEv,comdat
	.weak	_ZNK6String5c_strEv
	.type	_ZNK6String5c_strEv, @function
_ZNK6String5c_strEv:
.LFB43:
	.loc 1 163 14
	.cfi_startproc
	push r28
	.cfi_def_cfa_offset 3
	.cfi_offset 28, -2
	push r29
	.cfi_def_cfa_offset 4
	.cfi_offset 29, -3
	rcall .
	.cfi_def_cfa_offset 6
	in r28,__SP_L__
	in r29,__SP_H__
	.cfi_def_cfa_register 28
/* prologue: function */
/* frame size = 2 */
/* stack size = 4 */
.L__stack_usage = 4
	std Y+2,r25
	std Y+1,r24
	.loc 1 163 37
	ldd r24,Y+1
	ldd r25,Y+2
	movw r30,r24
	ld r24,Z
	ldd r25,Z+1
/* epilogue start */
	.loc 1 163 45
	pop __tmp_reg__
	pop __tmp_reg__
	pop r29
	pop r28
	ret
	.cfi_endproc
.LFE43:
	.size	_ZNK6String5c_strEv, .-_ZNK6String5c_strEv
	.section	.text._ZN5Print5writeEPKc,"axG",@progbits,_ZN5Print5writeEPKc,comdat
	.weak	_ZN5Print5writeEPKc
	.type	_ZN5Print5writeEPKc, @function
_ZN5Print5writeEPKc:
.LFB85:
	.file 2 "/data/git/ECA-Arduino-Project/SoftwareSerial/Print.h"
	.loc 2 52 12
	.cfi_startproc
	push r16
	.cfi_def_cfa_offset 3
	.cfi_offset 16, -2
	push r17
	.cfi_def_cfa_offset 4
	.cfi_offset 17, -3
	push r28
	.cfi_def_cfa_offset 5
	.cfi_offset 28, -4
	push r29
	.cfi_def_cfa_offset 6
	.cfi_offset 29, -5
	rcall .
	rcall .
	.cfi_def_cfa_offset 10
	in r28,__SP_L__
	in r29,__SP_H__
	.cfi_def_cfa_register 28
/* prologue: function */
/* frame size = 4 */
/* stack size = 8 */
.L__stack_usage = 8
	std Y+2,r25
	std Y+1,r24
	std Y+4,r23
	std Y+3,r22
	.loc 2 53 7
	ldd r24,Y+3
	ldd r25,Y+4
	or r24,r25
	brne .L6
	.loc 2 53 30
	ldi r24,0
	ldi r25,0
	rjmp .L7
.L6:
	.loc 2 54 53
	ldd r24,Y+1
	ldd r25,Y+2
	movw r30,r24
	ld r24,Z
	ldd r25,Z+1
	adiw r24,2
	movw r30,r24
	ld r16,Z
	ldd r17,Z+1
	.loc 2 54 19
	ldd r24,Y+3
	ldd r25,Y+4
	rcall strlen
	movw r20,r24
	ldd r18,Y+3
	ldd r19,Y+4
	ldd r24,Y+1
	ldd r25,Y+2
	movw r22,r18
	movw r30,r16
	icall
.LVL0:
	.loc 2 54 53
	nop
.L7:
/* epilogue start */
	.loc 2 55 5
	pop __tmp_reg__
	pop __tmp_reg__
	pop __tmp_reg__
	pop __tmp_reg__
	pop r29
	pop r28
	pop r17
	pop r16
	ret
	.cfi_endproc
.LFE85:
	.size	_ZN5Print5writeEPKc, .-_ZN5Print5writeEPKc
	.section	.text._ZN5Print5writeEPKcj,"axG",@progbits,_ZN5Print5writeEPKcj,comdat
	.weak	_ZN5Print5writeEPKcj
	.type	_ZN5Print5writeEPKcj, @function
_ZN5Print5writeEPKcj:
.LFB86:
	.loc 2 57 12
	.cfi_startproc
	push r28
	.cfi_def_cfa_offset 3
	.cfi_offset 28, -2
	push r29
	.cfi_def_cfa_offset 4
	.cfi_offset 29, -3
	rcall .
	rcall .
	rcall .
	.cfi_def_cfa_offset 10
	in r28,__SP_L__
	in r29,__SP_H__
	.cfi_def_cfa_register 28
/* prologue: function */
/* frame size = 6 */
/* stack size = 8 */
.L__stack_usage = 8
	std Y+2,r25
	std Y+1,r24
	std Y+4,r23
	std Y+3,r22
	std Y+6,r21
	std Y+5,r20
	.loc 2 58 49
	ldd r24,Y+1
	ldd r25,Y+2
	movw r30,r24
	ld r24,Z
	ldd r25,Z+1
	adiw r24,2
	movw r30,r24
	ld r18,Z
	ldd r19,Z+1
	.loc 2 58 19
	ldd r20,Y+5
	ldd r21,Y+6
	ldd r22,Y+3
	ldd r23,Y+4
	ldd r24,Y+1
	ldd r25,Y+2
	movw r30,r18
	icall
.LVL1:
/* epilogue start */
	.loc 2 59 5
	adiw r28,6
	in __tmp_reg__,__SREG__
	cli
	out __SP_H__,r29
	out __SREG__,__tmp_reg__
	out __SP_L__,r28
	pop r29
	pop r28
	ret
	.cfi_endproc
.LFE86:
	.size	_ZN5Print5writeEPKcj, .-_ZN5Print5writeEPKcj
	.section	.text._ZN5Print17availableForWriteEv,"axG",@progbits,_ZN5Print17availableForWriteEv,comdat
	.weak	_ZN5Print17availableForWriteEv
	.type	_ZN5Print17availableForWriteEv, @function
_ZN5Print17availableForWriteEv:
.LFB87:
	.loc 2 63 17
	.cfi_startproc
	push r28
	.cfi_def_cfa_offset 3
	.cfi_offset 28, -2
	push r29
	.cfi_def_cfa_offset 4
	.cfi_offset 29, -3
	rcall .
	.cfi_def_cfa_offset 6
	in r28,__SP_L__
	in r29,__SP_H__
	.cfi_def_cfa_register 28
/* prologue: function */
/* frame size = 2 */
/* stack size = 4 */
.L__stack_usage = 4
	std Y+2,r25
	std Y+1,r24
	.loc 2 63 46
	ldi r24,0
	ldi r25,0
/* epilogue start */
	.loc 2 63 49
	pop __tmp_reg__
	pop __tmp_reg__
	pop r29
	pop r28
	ret
	.cfi_endproc
.LFE87:
	.size	_ZN5Print17availableForWriteEv, .-_ZN5Print17availableForWriteEv
	.section	.text._ZN5Print5flushEv,"axG",@progbits,_ZN5Print5flushEv,comdat
	.weak	_ZN5Print5flushEv
	.type	_ZN5Print5flushEv, @function
_ZN5Print5flushEv:
.LFB88:
	.loc 2 90 18
	.cfi_startproc
	push r28
	.cfi_def_cfa_offset 3
	.cfi_offset 28, -2
	push r29
	.cfi_def_cfa_offset 4
	.cfi_offset 29, -3
	rcall .
	.cfi_def_cfa_offset 6
	in r28,__SP_L__
	in r29,__SP_H__
	.cfi_def_cfa_register 28
/* prologue: function */
/* frame size = 2 */
/* stack size = 4 */
.L__stack_usage = 4
	std Y+2,r25
	std Y+1,r24
	.loc 2 90 28
	nop
/* epilogue start */
	pop __tmp_reg__
	pop __tmp_reg__
	pop r29
	pop r28
	ret
	.cfi_endproc
.LFE88:
	.size	_ZN5Print5flushEv, .-_ZN5Print5flushEv
	.section	.rodata
	.type	_ZL2SS, @object
	.size	_ZL2SS, 1
_ZL2SS:
	.byte	10
	.type	_ZL4MOSI, @object
	.size	_ZL4MOSI, 1
_ZL4MOSI:
	.byte	11
	.type	_ZL4MISO, @object
	.size	_ZL4MISO, 1
_ZL4MISO:
	.byte	12
	.type	_ZL3SCK, @object
	.size	_ZL3SCK, 1
_ZL3SCK:
	.byte	13
	.type	_ZL3SDA, @object
	.size	_ZL3SDA, 1
_ZL3SDA:
	.byte	18
	.type	_ZL3SCL, @object
	.size	_ZL3SCL, 1
_ZL3SCL:
	.byte	19
	.type	_ZL2A0, @object
	.size	_ZL2A0, 1
_ZL2A0:
	.byte	14
	.type	_ZL2A1, @object
	.size	_ZL2A1, 1
_ZL2A1:
	.byte	15
	.type	_ZL2A2, @object
	.size	_ZL2A2, 1
_ZL2A2:
	.byte	16
	.type	_ZL2A3, @object
	.size	_ZL2A3, 1
_ZL2A3:
	.byte	17
	.type	_ZL2A4, @object
	.size	_ZL2A4, 1
_ZL2A4:
	.byte	18
	.type	_ZL2A5, @object
	.size	_ZL2A5, 1
_ZL2A5:
	.byte	19
	.type	_ZL2A6, @object
	.size	_ZL2A6, 1
_ZL2A6:
	.byte	20
	.type	_ZL2A7, @object
	.size	_ZL2A7, 1
_ZL2A7:
	.byte	21
	.section	.text._ZN5Print5writeEPKhj,"ax",@progbits
.global	_ZN5Print5writeEPKhj
	.type	_ZN5Print5writeEPKhj, @function
_ZN5Print5writeEPKhj:
.LFB112:
	.file 3 "/data/git/ECA-Arduino-Project/SoftwareSerial/Print.cpp"
	.loc 3 35 1
	.cfi_startproc
	push r28
	.cfi_def_cfa_offset 3
	.cfi_offset 28, -2
	push r29
	.cfi_def_cfa_offset 4
	.cfi_offset 29, -3
	in r28,__SP_L__
	in r29,__SP_H__
	.cfi_def_cfa_register 28
	sbiw r28,8
	.cfi_def_cfa_offset 12
	in __tmp_reg__,__SREG__
	cli
	out __SP_H__,r29
	out __SREG__,__tmp_reg__
	out __SP_L__,r28
/* prologue: function */
/* frame size = 8 */
/* stack size = 10 */
.L__stack_usage = 10
	std Y+4,r25
	std Y+3,r24
	std Y+6,r23
	std Y+5,r22
	std Y+8,r21
	std Y+7,r20
	.loc 3 36 10
	std Y+2,__zero_reg__
	std Y+1,__zero_reg__
.L19:
	.loc 3 37 14
	ldd r24,Y+7
	ldd r25,Y+8
	movw r18,r24
	subi r18,1
	sbc r19,__zero_reg__
	std Y+8,r19
	std Y+7,r18
	ldi r18,lo8(1)
	or r24,r25
	brne .L14
	ldi r18,0
.L14:
	tst r18
	breq .L15
	.loc 3 38 24
	ldd r24,Y+3
	ldd r25,Y+4
	movw r30,r24
	ld r24,Z
	ldd r25,Z+1
	movw r30,r24
	ld r18,Z
	ldd r19,Z+1
	.loc 3 38 22
	ldd r24,Y+5
	ldd r25,Y+6
	movw r20,r24
	subi r20,-1
	sbci r21,-1
	std Y+6,r21
	std Y+5,r20
	.loc 3 38 14
	movw r30,r24
	ld r20,Z
	ldd r24,Y+3
	ldd r25,Y+4
	mov r22,r20
	movw r30,r18
	icall
.LVL2:
	.loc 3 38 25
	ldi r18,lo8(1)
	or r24,r25
	brne .L16
	ldi r18,0
.L16:
	.loc 3 38 5
	tst r18
	breq .L21
	.loc 3 38 28
	ldd r24,Y+1
	ldd r25,Y+2
	adiw r24,1
	std Y+2,r25
	std Y+1,r24
	.loc 3 37 3
	rjmp .L19
.L21:
	.loc 3 39 10
	nop
.L15:
	.loc 3 41 10
	ldd r24,Y+1
	ldd r25,Y+2
/* epilogue start */
	.loc 3 42 1
	adiw r28,8
	in __tmp_reg__,__SREG__
	cli
	out __SP_H__,r29
	out __SREG__,__tmp_reg__
	out __SP_L__,r28
	pop r29
	pop r28
	ret
	.cfi_endproc
.LFE112:
	.size	_ZN5Print5writeEPKhj, .-_ZN5Print5writeEPKhj
	.section	.text._ZN5Print5printEPK19__FlashStringHelper,"ax",@progbits
.global	_ZN5Print5printEPK19__FlashStringHelper
	.type	_ZN5Print5printEPK19__FlashStringHelper, @function
_ZN5Print5printEPK19__FlashStringHelper:
.LFB113:
	.loc 3 45 1
	.cfi_startproc
	push r28
	.cfi_def_cfa_offset 3
	.cfi_offset 28, -2
	push r29
	.cfi_def_cfa_offset 4
	.cfi_offset 29, -3
	in r28,__SP_L__
	in r29,__SP_H__
	.cfi_def_cfa_register 28
	sbiw r28,12
	.cfi_def_cfa_offset 16
	in __tmp_reg__,__SREG__
	cli
	out __SP_H__,r29
	out __SREG__,__tmp_reg__
	out __SP_L__,r28
/* prologue: function */
/* frame size = 12 */
/* stack size = 14 */
.L__stack_usage = 14
	std Y+10,r25
	std Y+9,r24
	std Y+12,r23
	std Y+11,r22
	.loc 3 46 8
	ldd r24,Y+11
	ldd r25,Y+12
	std Y+2,r25
	std Y+1,r24
	.loc 3 47 10
	std Y+4,__zero_reg__
	std Y+3,__zero_reg__
.L28:
.LBB2:
.LBB3:
	.loc 3 49 23
	ldd r24,Y+1
	ldd r25,Y+2
	movw r18,r24
	subi r18,-1
	sbci r19,-1
	std Y+2,r19
	std Y+1,r18
	.loc 3 49 23
	std Y+6,r25
	std Y+5,r24
	.loc 3 49 122
	ldd r24,Y+5
	ldd r25,Y+6
	movw r30,r24
/* #APP */
 ;  49 "/data/git/ECA-Arduino-Project/SoftwareSerial/Print.cpp" 1
	lpm r24, Z
	
 ;  0 "" 2
/* #NOAPP */
	std Y+7,r24
	.loc 3 49 136
	ldd r24,Y+7
	std Y+8,r24
.LBE3:
	.loc 3 50 5
	ldd r24,Y+8
	tst r24
	breq .L30
	.loc 3 51 16
	ldd r24,Y+9
	ldd r25,Y+10
	movw r30,r24
	ld r24,Z
	ldd r25,Z+1
	movw r30,r24
	ld r18,Z
	ldd r19,Z+1
	.loc 3 51 14
	ldd r24,Y+9
	ldd r25,Y+10
	ldd r22,Y+8
	movw r30,r18
	icall
.LVL3:
	.loc 3 51 17
	ldi r18,lo8(1)
	or r24,r25
	brne .L25
	ldi r18,0
.L25:
	.loc 3 51 5
	tst r18
	breq .L31
	.loc 3 51 20
	ldd r24,Y+3
	ldd r25,Y+4
	adiw r24,1
	std Y+4,r25
	std Y+3,r24
.LBE2:
	.loc 3 53 3
	rjmp .L28
.L30:
.LBB4:
	.loc 3 50 17
	nop
	rjmp .L24
.L31:
	.loc 3 52 10
	nop
.L24:
.LBE4:
	.loc 3 54 10
	ldd r24,Y+3
	ldd r25,Y+4
/* epilogue start */
	.loc 3 55 1
	adiw r28,12
	in __tmp_reg__,__SREG__
	cli
	out __SP_H__,r29
	out __SREG__,__tmp_reg__
	out __SP_L__,r28
	pop r29
	pop r28
	ret
	.cfi_endproc
.LFE113:
	.size	_ZN5Print5printEPK19__FlashStringHelper, .-_ZN5Print5printEPK19__FlashStringHelper
	.section	.text._ZN5Print5printERK6String,"ax",@progbits
.global	_ZN5Print5printERK6String
	.type	_ZN5Print5printERK6String, @function
_ZN5Print5printERK6String:
.LFB114:
	.loc 3 58 1
	.cfi_startproc
	push r16
	.cfi_def_cfa_offset 3
	.cfi_offset 16, -2
	push r17
	.cfi_def_cfa_offset 4
	.cfi_offset 17, -3
	push r28
	.cfi_def_cfa_offset 5
	.cfi_offset 28, -4
	push r29
	.cfi_def_cfa_offset 6
	.cfi_offset 29, -5
	rcall .
	rcall .
	.cfi_def_cfa_offset 10
	in r28,__SP_L__
	in r29,__SP_H__
	.cfi_def_cfa_register 28
/* prologue: function */
/* frame size = 4 */
/* stack size = 8 */
.L__stack_usage = 8
	std Y+2,r25
	std Y+1,r24
	std Y+4,r23
	std Y+3,r22
	.loc 3 59 15
	ldd r24,Y+3
	ldd r25,Y+4
	rcall _ZNK6String6lengthEv
	movw r16,r24
	ldd r24,Y+3
	ldd r25,Y+4
	rcall _ZNK6String5c_strEv
	movw r18,r24
	ldd r24,Y+1
	ldd r25,Y+2
	movw r20,r16
	movw r22,r18
	rcall _ZN5Print5writeEPKcj
/* epilogue start */
	.loc 3 60 1
	pop __tmp_reg__
	pop __tmp_reg__
	pop __tmp_reg__
	pop __tmp_reg__
	pop r29
	pop r28
	pop r17
	pop r16
	ret
	.cfi_endproc
.LFE114:
	.size	_ZN5Print5printERK6String, .-_ZN5Print5printERK6String
	.section	.text._ZN5Print5printEPKc,"ax",@progbits
.global	_ZN5Print5printEPKc
	.type	_ZN5Print5printEPKc, @function
_ZN5Print5printEPKc:
.LFB115:
	.loc 3 63 1
	.cfi_startproc
	push r28
	.cfi_def_cfa_offset 3
	.cfi_offset 28, -2
	push r29
	.cfi_def_cfa_offset 4
	.cfi_offset 29, -3
	rcall .
	rcall .
	.cfi_def_cfa_offset 8
	in r28,__SP_L__
	in r29,__SP_H__
	.cfi_def_cfa_register 28
/* prologue: function */
/* frame size = 4 */
/* stack size = 6 */
.L__stack_usage = 6
	std Y+2,r25
	std Y+1,r24
	std Y+4,r23
	std Y+3,r22
	.loc 3 64 15
	ldd r18,Y+3
	ldd r19,Y+4
	ldd r24,Y+1
	ldd r25,Y+2
	movw r22,r18
	rcall _ZN5Print5writeEPKc
/* epilogue start */
	.loc 3 65 1
	pop __tmp_reg__
	pop __tmp_reg__
	pop __tmp_reg__
	pop __tmp_reg__
	pop r29
	pop r28
	ret
	.cfi_endproc
.LFE115:
	.size	_ZN5Print5printEPKc, .-_ZN5Print5printEPKc
	.section	.text._ZN5Print5printEc,"ax",@progbits
.global	_ZN5Print5printEc
	.type	_ZN5Print5printEc, @function
_ZN5Print5printEc:
.LFB116:
	.loc 3 68 1
	.cfi_startproc
	push r28
	.cfi_def_cfa_offset 3
	.cfi_offset 28, -2
	push r29
	.cfi_def_cfa_offset 4
	.cfi_offset 29, -3
	rcall .
	push __tmp_reg__
	.cfi_def_cfa_offset 7
	in r28,__SP_L__
	in r29,__SP_H__
	.cfi_def_cfa_register 28
/* prologue: function */
/* frame size = 3 */
/* stack size = 5 */
.L__stack_usage = 5
	std Y+2,r25
	std Y+1,r24
	std Y+3,r22
	.loc 3 69 17
	ldd r24,Y+1
	ldd r25,Y+2
	movw r30,r24
	ld r24,Z
	ldd r25,Z+1
	movw r30,r24
	ld r18,Z
	ldd r19,Z+1
	.loc 3 69 15
	ldd r24,Y+1
	ldd r25,Y+2
	ldd r22,Y+3
	movw r30,r18
	icall
.LVL4:
/* epilogue start */
	.loc 3 70 1
	pop __tmp_reg__
	pop __tmp_reg__
	pop __tmp_reg__
	pop r29
	pop r28
	ret
	.cfi_endproc
.LFE116:
	.size	_ZN5Print5printEc, .-_ZN5Print5printEc
	.section	.text._ZN5Print5printEhi,"ax",@progbits
.global	_ZN5Print5printEhi
	.type	_ZN5Print5printEhi, @function
_ZN5Print5printEhi:
.LFB117:
	.loc 3 73 1
	.cfi_startproc
	push r28
	.cfi_def_cfa_offset 3
	.cfi_offset 28, -2
	push r29
	.cfi_def_cfa_offset 4
	.cfi_offset 29, -3
	rcall .
	rcall .
	push __tmp_reg__
	.cfi_def_cfa_offset 9
	in r28,__SP_L__
	in r29,__SP_H__
	.cfi_def_cfa_register 28
/* prologue: function */
/* frame size = 5 */
/* stack size = 7 */
.L__stack_usage = 7
	std Y+2,r25
	std Y+1,r24
	std Y+3,r22
	std Y+5,r21
	std Y+4,r20
	.loc 3 74 15
	ldd r24,Y+3
	mov r24,r24
	ldi r25,0
	ldi r26,0
	ldi r27,0
	ldd r18,Y+4
	ldd r19,Y+5
	ldd r30,Y+1
	ldd r31,Y+2
	movw r20,r24
	movw r22,r26
	movw r24,r30
	rcall _ZN5Print5printEmi
/* epilogue start */
	.loc 3 75 1
	pop __tmp_reg__
	pop __tmp_reg__
	pop __tmp_reg__
	pop __tmp_reg__
	pop __tmp_reg__
	pop r29
	pop r28
	ret
	.cfi_endproc
.LFE117:
	.size	_ZN5Print5printEhi, .-_ZN5Print5printEhi
	.section	.text._ZN5Print5printEii,"ax",@progbits
.global	_ZN5Print5printEii
	.type	_ZN5Print5printEii, @function
_ZN5Print5printEii:
.LFB118:
	.loc 3 78 1
	.cfi_startproc
	push r28
	.cfi_def_cfa_offset 3
	.cfi_offset 28, -2
	push r29
	.cfi_def_cfa_offset 4
	.cfi_offset 29, -3
	rcall .
	rcall .
	rcall .
	.cfi_def_cfa_offset 10
	in r28,__SP_L__
	in r29,__SP_H__
	.cfi_def_cfa_register 28
/* prologue: function */
/* frame size = 6 */
/* stack size = 8 */
.L__stack_usage = 8
	std Y+2,r25
	std Y+1,r24
	std Y+4,r23
	std Y+3,r22
	std Y+6,r21
	std Y+5,r20
	.loc 3 79 15
	ldd r24,Y+3
	ldd r25,Y+4
	mov __tmp_reg__,r25
	lsl r0
	sbc r26,r26
	sbc r27,r27
	ldd r18,Y+5
	ldd r19,Y+6
	ldd r30,Y+1
	ldd r31,Y+2
	movw r20,r24
	movw r22,r26
	movw r24,r30
	rcall _ZN5Print5printEli
/* epilogue start */
	.loc 3 80 1
	adiw r28,6
	in __tmp_reg__,__SREG__
	cli
	out __SP_H__,r29
	out __SREG__,__tmp_reg__
	out __SP_L__,r28
	pop r29
	pop r28
	ret
	.cfi_endproc
.LFE118:
	.size	_ZN5Print5printEii, .-_ZN5Print5printEii
	.section	.text._ZN5Print5printEji,"ax",@progbits
.global	_ZN5Print5printEji
	.type	_ZN5Print5printEji, @function
_ZN5Print5printEji:
.LFB119:
	.loc 3 83 1
	.cfi_startproc
	push r28
	.cfi_def_cfa_offset 3
	.cfi_offset 28, -2
	push r29
	.cfi_def_cfa_offset 4
	.cfi_offset 29, -3
	rcall .
	rcall .
	rcall .
	.cfi_def_cfa_offset 10
	in r28,__SP_L__
	in r29,__SP_H__
	.cfi_def_cfa_register 28
/* prologue: function */
/* frame size = 6 */
/* stack size = 8 */
.L__stack_usage = 8
	std Y+2,r25
	std Y+1,r24
	std Y+4,r23
	std Y+3,r22
	std Y+6,r21
	std Y+5,r20
	.loc 3 84 15
	ldd r24,Y+3
	ldd r25,Y+4
	movw r24,r24
	ldi r26,0
	ldi r27,0
	ldd r18,Y+5
	ldd r19,Y+6
	ldd r30,Y+1
	ldd r31,Y+2
	movw r20,r24
	movw r22,r26
	movw r24,r30
	rcall _ZN5Print5printEmi
/* epilogue start */
	.loc 3 85 1
	adiw r28,6
	in __tmp_reg__,__SREG__
	cli
	out __SP_H__,r29
	out __SREG__,__tmp_reg__
	out __SP_L__,r28
	pop r29
	pop r28
	ret
	.cfi_endproc
.LFE119:
	.size	_ZN5Print5printEji, .-_ZN5Print5printEji
	.section	.text._ZN5Print5printEli,"ax",@progbits
.global	_ZN5Print5printEli
	.type	_ZN5Print5printEli, @function
_ZN5Print5printEli:
.LFB120:
	.loc 3 88 1
	.cfi_startproc
	push r28
	.cfi_def_cfa_offset 3
	.cfi_offset 28, -2
	push r29
	.cfi_def_cfa_offset 4
	.cfi_offset 29, -3
	in r28,__SP_L__
	in r29,__SP_H__
	.cfi_def_cfa_register 28
	sbiw r28,10
	.cfi_def_cfa_offset 14
	in __tmp_reg__,__SREG__
	cli
	out __SP_H__,r29
	out __SREG__,__tmp_reg__
	out __SP_L__,r28
/* prologue: function */
/* frame size = 10 */
/* stack size = 12 */
.L__stack_usage = 12
	std Y+4,r25
	std Y+3,r24
	std Y+5,r20
	std Y+6,r21
	std Y+7,r22
	std Y+8,r23
	std Y+10,r19
	std Y+9,r18
.LBB5:
	.loc 3 89 3
	ldd r24,Y+9
	ldd r25,Y+10
	or r24,r25
	brne .L45
	.loc 3 90 19
	ldd r24,Y+3
	ldd r25,Y+4
	movw r30,r24
	ld r24,Z
	ldd r25,Z+1
	movw r30,r24
	ld r18,Z
	ldd r19,Z+1
	.loc 3 90 17
	ldd r20,Y+5
	ldd r24,Y+3
	ldd r25,Y+4
	mov r22,r20
	movw r30,r18
	icall
.LVL5:
	.loc 3 90 19
	rjmp .L46
.L45:
.LBB6:
.LBB7:
	.loc 3 91 10
	ldd r24,Y+9
	ldd r25,Y+10
	sbiw r24,10
	brne .L47
.LBB8:
.LBB9:
	.loc 3 92 5
	ldd r24,Y+5
	ldd r25,Y+6
	ldd r26,Y+7
	ldd r27,Y+8
	tst r27
	brge .L48
.LBB10:
	.loc 3 93 20
	ldd r24,Y+3
	ldd r25,Y+4
	ldi r22,lo8(45)
	rcall _ZN5Print5printEc
	.loc 3 93 24
	std Y+2,r25
	std Y+1,r24
	.loc 3 94 9
	ldd r24,Y+5
	ldd r25,Y+6
	ldd r26,Y+7
	ldd r27,Y+8
	com r27
	com r26
	com r25
	neg r24
	sbci r25,lo8(-1)
	sbci r26,lo8(-1)
	sbci r27,lo8(-1)
	std Y+5,r24
	std Y+6,r25
	std Y+7,r26
	std Y+8,r27
	.loc 3 95 25
	ldd r24,Y+5
	ldd r25,Y+6
	ldd r26,Y+7
	ldd r27,Y+8
	ldd r30,Y+3
	ldd r31,Y+4
	ldi r18,lo8(10)
	movw r20,r24
	movw r22,r26
	movw r24,r30
	rcall _ZN5Print11printNumberEmh
	movw r18,r24
	.loc 3 95 33
	ldd r24,Y+1
	ldd r25,Y+2
	.loc 3 95 35
	add r24,r18
	adc r25,r19
	rjmp .L46
.L48:
.LBE10:
.LBE9:
	.loc 3 97 23
	ldd r24,Y+5
	ldd r25,Y+6
	ldd r26,Y+7
	ldd r27,Y+8
	ldd r30,Y+3
	ldd r31,Y+4
	ldi r18,lo8(10)
	movw r20,r24
	movw r22,r26
	movw r24,r30
	rcall _ZN5Print11printNumberEmh
	.loc 3 97 29
	rjmp .L46
.L47:
.LBE8:
	.loc 3 99 23
	ldd r18,Y+9
	ldd r24,Y+5
	ldd r25,Y+6
	ldd r26,Y+7
	ldd r27,Y+8
	ldd r30,Y+3
	ldd r31,Y+4
	movw r20,r24
	movw r22,r26
	movw r24,r30
	rcall _ZN5Print11printNumberEmh
	.loc 3 99 31
	nop
.L46:
/* epilogue start */
.LBE7:
.LBE6:
.LBE5:
	.loc 3 101 1
	adiw r28,10
	in __tmp_reg__,__SREG__
	cli
	out __SP_H__,r29
	out __SREG__,__tmp_reg__
	out __SP_L__,r28
	pop r29
	pop r28
	ret
	.cfi_endproc
.LFE120:
	.size	_ZN5Print5printEli, .-_ZN5Print5printEli
	.section	.text._ZN5Print5printEmi,"ax",@progbits
.global	_ZN5Print5printEmi
	.type	_ZN5Print5printEmi, @function
_ZN5Print5printEmi:
.LFB121:
	.loc 3 104 1
	.cfi_startproc
	push r28
	.cfi_def_cfa_offset 3
	.cfi_offset 28, -2
	push r29
	.cfi_def_cfa_offset 4
	.cfi_offset 29, -3
	in r28,__SP_L__
	in r29,__SP_H__
	.cfi_def_cfa_register 28
	sbiw r28,8
	.cfi_def_cfa_offset 12
	in __tmp_reg__,__SREG__
	cli
	out __SP_H__,r29
	out __SREG__,__tmp_reg__
	out __SP_L__,r28
/* prologue: function */
/* frame size = 8 */
/* stack size = 10 */
.L__stack_usage = 10
	std Y+2,r25
	std Y+1,r24
	std Y+3,r20
	std Y+4,r21
	std Y+5,r22
	std Y+6,r23
	std Y+8,r19
	std Y+7,r18
	.loc 3 105 3
	ldd r24,Y+7
	ldd r25,Y+8
	or r24,r25
	brne .L50
	.loc 3 105 32
	ldd r24,Y+1
	ldd r25,Y+2
	movw r30,r24
	ld r24,Z
	ldd r25,Z+1
	movw r30,r24
	ld r18,Z
	ldd r19,Z+1
	.loc 3 105 30
	ldd r20,Y+3
	ldd r24,Y+1
	ldd r25,Y+2
	mov r22,r20
	movw r30,r18
	icall
.LVL6:
	.loc 3 105 32
	rjmp .L51
.L50:
	.loc 3 106 26
	ldd r18,Y+7
	ldd r24,Y+3
	ldd r25,Y+4
	ldd r26,Y+5
	ldd r27,Y+6
	ldd r30,Y+1
	ldd r31,Y+2
	movw r20,r24
	movw r22,r26
	movw r24,r30
	rcall _ZN5Print11printNumberEmh
	.loc 3 106 34
	nop
.L51:
/* epilogue start */
	.loc 3 107 1
	adiw r28,8
	in __tmp_reg__,__SREG__
	cli
	out __SP_H__,r29
	out __SREG__,__tmp_reg__
	out __SP_L__,r28
	pop r29
	pop r28
	ret
	.cfi_endproc
.LFE121:
	.size	_ZN5Print5printEmi, .-_ZN5Print5printEmi
	.section	.text._ZN5Print5printEdi,"ax",@progbits
.global	_ZN5Print5printEdi
	.type	_ZN5Print5printEdi, @function
_ZN5Print5printEdi:
.LFB122:
	.loc 3 110 1
	.cfi_startproc
	push r28
	.cfi_def_cfa_offset 3
	.cfi_offset 28, -2
	push r29
	.cfi_def_cfa_offset 4
	.cfi_offset 29, -3
	in r28,__SP_L__
	in r29,__SP_H__
	.cfi_def_cfa_register 28
	sbiw r28,8
	.cfi_def_cfa_offset 12
	in __tmp_reg__,__SREG__
	cli
	out __SP_H__,r29
	out __SREG__,__tmp_reg__
	out __SP_L__,r28
/* prologue: function */
/* frame size = 8 */
/* stack size = 10 */
.L__stack_usage = 10
	std Y+2,r25
	std Y+1,r24
	std Y+3,r20
	std Y+4,r21
	std Y+5,r22
	std Y+6,r23
	std Y+8,r19
	std Y+7,r18
	.loc 3 111 20
	ldd r18,Y+7
	ldd r24,Y+3
	ldd r25,Y+4
	ldd r26,Y+5
	ldd r27,Y+6
	ldd r30,Y+1
	ldd r31,Y+2
	movw r20,r24
	movw r22,r26
	movw r24,r30
	rcall _ZN5Print10printFloatEdh
/* epilogue start */
	.loc 3 112 1
	adiw r28,8
	in __tmp_reg__,__SREG__
	cli
	out __SP_H__,r29
	out __SREG__,__tmp_reg__
	out __SP_L__,r28
	pop r29
	pop r28
	ret
	.cfi_endproc
.LFE122:
	.size	_ZN5Print5printEdi, .-_ZN5Print5printEdi
	.section	.text._ZN5Print7printlnEPK19__FlashStringHelper,"ax",@progbits
.global	_ZN5Print7printlnEPK19__FlashStringHelper
	.type	_ZN5Print7printlnEPK19__FlashStringHelper, @function
_ZN5Print7printlnEPK19__FlashStringHelper:
.LFB123:
	.loc 3 115 1
	.cfi_startproc
	push r28
	.cfi_def_cfa_offset 3
	.cfi_offset 28, -2
	push r29
	.cfi_def_cfa_offset 4
	.cfi_offset 29, -3
	rcall .
	rcall .
	rcall .
	.cfi_def_cfa_offset 10
	in r28,__SP_L__
	in r29,__SP_H__
	.cfi_def_cfa_register 28
/* prologue: function */
/* frame size = 6 */
/* stack size = 8 */
.L__stack_usage = 8
	std Y+4,r25
	std Y+3,r24
	std Y+6,r23
	std Y+5,r22
	.loc 3 116 19
	ldd r18,Y+5
	ldd r19,Y+6
	ldd r24,Y+3
	ldd r25,Y+4
	movw r22,r18
	rcall _ZN5Print5printEPK19__FlashStringHelper
	std Y+2,r25
	std Y+1,r24
	.loc 3 117 15
	ldd r24,Y+3
	ldd r25,Y+4
	rcall _ZN5Print7printlnEv
	movw r18,r24
	.loc 3 117 5
	ldd r24,Y+1
	ldd r25,Y+2
	add r24,r18
	adc r25,r19
	std Y+2,r25
	std Y+1,r24
	.loc 3 118 10
	ldd r24,Y+1
	ldd r25,Y+2
/* epilogue start */
	.loc 3 119 1
	adiw r28,6
	in __tmp_reg__,__SREG__
	cli
	out __SP_H__,r29
	out __SREG__,__tmp_reg__
	out __SP_L__,r28
	pop r29
	pop r28
	ret
	.cfi_endproc
.LFE123:
	.size	_ZN5Print7printlnEPK19__FlashStringHelper, .-_ZN5Print7printlnEPK19__FlashStringHelper
	.section	.text._ZN5Print5printERK9Printable,"ax",@progbits
.global	_ZN5Print5printERK9Printable
	.type	_ZN5Print5printERK9Printable, @function
_ZN5Print5printERK9Printable:
.LFB124:
	.loc 3 122 1
	.cfi_startproc
	push r28
	.cfi_def_cfa_offset 3
	.cfi_offset 28, -2
	push r29
	.cfi_def_cfa_offset 4
	.cfi_offset 29, -3
	rcall .
	rcall .
	.cfi_def_cfa_offset 8
	in r28,__SP_L__
	in r29,__SP_H__
	.cfi_def_cfa_register 28
/* prologue: function */
/* frame size = 4 */
/* stack size = 6 */
.L__stack_usage = 6
	std Y+2,r25
	std Y+1,r24
	std Y+4,r23
	std Y+3,r22
	.loc 3 123 25
	ldd r24,Y+3
	ldd r25,Y+4
	movw r30,r24
	ld r24,Z
	ldd r25,Z+1
	movw r30,r24
	ld r18,Z
	ldd r19,Z+1
	.loc 3 123 19
	ldd r20,Y+1
	ldd r21,Y+2
	ldd r24,Y+3
	ldd r25,Y+4
	movw r22,r20
	movw r30,r18
	icall
.LVL7:
/* epilogue start */
	.loc 3 124 1
	pop __tmp_reg__
	pop __tmp_reg__
	pop __tmp_reg__
	pop __tmp_reg__
	pop r29
	pop r28
	ret
	.cfi_endproc
.LFE124:
	.size	_ZN5Print5printERK9Printable, .-_ZN5Print5printERK9Printable
	.section	.rodata
.LC0:
	.string	"\r\n"
	.section	.text._ZN5Print7printlnEv,"ax",@progbits
.global	_ZN5Print7printlnEv
	.type	_ZN5Print7printlnEv, @function
_ZN5Print7printlnEv:
.LFB125:
	.loc 3 127 1
	.cfi_startproc
	push r28
	.cfi_def_cfa_offset 3
	.cfi_offset 28, -2
	push r29
	.cfi_def_cfa_offset 4
	.cfi_offset 29, -3
	rcall .
	.cfi_def_cfa_offset 6
	in r28,__SP_L__
	in r29,__SP_H__
	.cfi_def_cfa_register 28
/* prologue: function */
/* frame size = 2 */
/* stack size = 4 */
.L__stack_usage = 4
	std Y+2,r25
	std Y+1,r24
	.loc 3 128 15
	ldd r24,Y+1
	ldd r25,Y+2
	ldi r22,lo8(.LC0)
	ldi r23,hi8(.LC0)
	rcall _ZN5Print5writeEPKc
/* epilogue start */
	.loc 3 129 1
	pop __tmp_reg__
	pop __tmp_reg__
	pop r29
	pop r28
	ret
	.cfi_endproc
.LFE125:
	.size	_ZN5Print7printlnEv, .-_ZN5Print7printlnEv
	.section	.text._ZN5Print7printlnERK6String,"ax",@progbits
.global	_ZN5Print7printlnERK6String
	.type	_ZN5Print7printlnERK6String, @function
_ZN5Print7printlnERK6String:
.LFB126:
	.loc 3 132 1
	.cfi_startproc
	push r28
	.cfi_def_cfa_offset 3
	.cfi_offset 28, -2
	push r29
	.cfi_def_cfa_offset 4
	.cfi_offset 29, -3
	rcall .
	rcall .
	rcall .
	.cfi_def_cfa_offset 10
	in r28,__SP_L__
	in r29,__SP_H__
	.cfi_def_cfa_register 28
/* prologue: function */
/* frame size = 6 */
/* stack size = 8 */
.L__stack_usage = 8
	std Y+4,r25
	std Y+3,r24
	std Y+6,r23
	std Y+5,r22
	.loc 3 133 19
	ldd r18,Y+5
	ldd r19,Y+6
	ldd r24,Y+3
	ldd r25,Y+4
	movw r22,r18
	rcall _ZN5Print5printERK6String
	std Y+2,r25
	std Y+1,r24
	.loc 3 134 15
	ldd r24,Y+3
	ldd r25,Y+4
	rcall _ZN5Print7printlnEv
	movw r18,r24
	.loc 3 134 5
	ldd r24,Y+1
	ldd r25,Y+2
	add r24,r18
	adc r25,r19
	std Y+2,r25
	std Y+1,r24
	.loc 3 135 10
	ldd r24,Y+1
	ldd r25,Y+2
/* epilogue start */
	.loc 3 136 1
	adiw r28,6
	in __tmp_reg__,__SREG__
	cli
	out __SP_H__,r29
	out __SREG__,__tmp_reg__
	out __SP_L__,r28
	pop r29
	pop r28
	ret
	.cfi_endproc
.LFE126:
	.size	_ZN5Print7printlnERK6String, .-_ZN5Print7printlnERK6String
	.section	.text._ZN5Print7printlnEPKc,"ax",@progbits
.global	_ZN5Print7printlnEPKc
	.type	_ZN5Print7printlnEPKc, @function
_ZN5Print7printlnEPKc:
.LFB127:
	.loc 3 139 1
	.cfi_startproc
	push r28
	.cfi_def_cfa_offset 3
	.cfi_offset 28, -2
	push r29
	.cfi_def_cfa_offset 4
	.cfi_offset 29, -3
	rcall .
	rcall .
	rcall .
	.cfi_def_cfa_offset 10
	in r28,__SP_L__
	in r29,__SP_H__
	.cfi_def_cfa_register 28
/* prologue: function */
/* frame size = 6 */
/* stack size = 8 */
.L__stack_usage = 8
	std Y+4,r25
	std Y+3,r24
	std Y+6,r23
	std Y+5,r22
	.loc 3 140 19
	ldd r18,Y+5
	ldd r19,Y+6
	ldd r24,Y+3
	ldd r25,Y+4
	movw r22,r18
	rcall _ZN5Print5printEPKc
	std Y+2,r25
	std Y+1,r24
	.loc 3 141 15
	ldd r24,Y+3
	ldd r25,Y+4
	rcall _ZN5Print7printlnEv
	movw r18,r24
	.loc 3 141 5
	ldd r24,Y+1
	ldd r25,Y+2
	add r24,r18
	adc r25,r19
	std Y+2,r25
	std Y+1,r24
	.loc 3 142 10
	ldd r24,Y+1
	ldd r25,Y+2
/* epilogue start */
	.loc 3 143 1
	adiw r28,6
	in __tmp_reg__,__SREG__
	cli
	out __SP_H__,r29
	out __SREG__,__tmp_reg__
	out __SP_L__,r28
	pop r29
	pop r28
	ret
	.cfi_endproc
.LFE127:
	.size	_ZN5Print7printlnEPKc, .-_ZN5Print7printlnEPKc
	.section	.text._ZN5Print7printlnEc,"ax",@progbits
.global	_ZN5Print7printlnEc
	.type	_ZN5Print7printlnEc, @function
_ZN5Print7printlnEc:
.LFB128:
	.loc 3 146 1
	.cfi_startproc
	push r28
	.cfi_def_cfa_offset 3
	.cfi_offset 28, -2
	push r29
	.cfi_def_cfa_offset 4
	.cfi_offset 29, -3
	rcall .
	rcall .
	push __tmp_reg__
	.cfi_def_cfa_offset 9
	in r28,__SP_L__
	in r29,__SP_H__
	.cfi_def_cfa_register 28
/* prologue: function */
/* frame size = 5 */
/* stack size = 7 */
.L__stack_usage = 7
	std Y+4,r25
	std Y+3,r24
	std Y+5,r22
	.loc 3 147 19
	ldd r24,Y+3
	ldd r25,Y+4
	ldd r22,Y+5
	rcall _ZN5Print5printEc
	std Y+2,r25
	std Y+1,r24
	.loc 3 148 15
	ldd r24,Y+3
	ldd r25,Y+4
	rcall _ZN5Print7printlnEv
	movw r18,r24
	.loc 3 148 5
	ldd r24,Y+1
	ldd r25,Y+2
	add r24,r18
	adc r25,r19
	std Y+2,r25
	std Y+1,r24
	.loc 3 149 10
	ldd r24,Y+1
	ldd r25,Y+2
/* epilogue start */
	.loc 3 150 1
	pop __tmp_reg__
	pop __tmp_reg__
	pop __tmp_reg__
	pop __tmp_reg__
	pop __tmp_reg__
	pop r29
	pop r28
	ret
	.cfi_endproc
.LFE128:
	.size	_ZN5Print7printlnEc, .-_ZN5Print7printlnEc
	.section	.text._ZN5Print7printlnEhi,"ax",@progbits
.global	_ZN5Print7printlnEhi
	.type	_ZN5Print7printlnEhi, @function
_ZN5Print7printlnEhi:
.LFB129:
	.loc 3 153 1
	.cfi_startproc
	push r28
	.cfi_def_cfa_offset 3
	.cfi_offset 28, -2
	push r29
	.cfi_def_cfa_offset 4
	.cfi_offset 29, -3
	rcall .
	rcall .
	rcall .
	push __tmp_reg__
	.cfi_def_cfa_offset 11
	in r28,__SP_L__
	in r29,__SP_H__
	.cfi_def_cfa_register 28
/* prologue: function */
/* frame size = 7 */
/* stack size = 9 */
.L__stack_usage = 9
	std Y+4,r25
	std Y+3,r24
	std Y+5,r22
	std Y+7,r21
	std Y+6,r20
	.loc 3 154 19
	ldd r18,Y+6
	ldd r19,Y+7
	ldd r24,Y+3
	ldd r25,Y+4
	movw r20,r18
	ldd r22,Y+5
	rcall _ZN5Print5printEhi
	std Y+2,r25
	std Y+1,r24
	.loc 3 155 15
	ldd r24,Y+3
	ldd r25,Y+4
	rcall _ZN5Print7printlnEv
	movw r18,r24
	.loc 3 155 5
	ldd r24,Y+1
	ldd r25,Y+2
	add r24,r18
	adc r25,r19
	std Y+2,r25
	std Y+1,r24
	.loc 3 156 10
	ldd r24,Y+1
	ldd r25,Y+2
/* epilogue start */
	.loc 3 157 1
	adiw r28,7
	in __tmp_reg__,__SREG__
	cli
	out __SP_H__,r29
	out __SREG__,__tmp_reg__
	out __SP_L__,r28
	pop r29
	pop r28
	ret
	.cfi_endproc
.LFE129:
	.size	_ZN5Print7printlnEhi, .-_ZN5Print7printlnEhi
	.section	.text._ZN5Print7printlnEii,"ax",@progbits
.global	_ZN5Print7printlnEii
	.type	_ZN5Print7printlnEii, @function
_ZN5Print7printlnEii:
.LFB130:
	.loc 3 160 1
	.cfi_startproc
	push r28
	.cfi_def_cfa_offset 3
	.cfi_offset 28, -2
	push r29
	.cfi_def_cfa_offset 4
	.cfi_offset 29, -3
	in r28,__SP_L__
	in r29,__SP_H__
	.cfi_def_cfa_register 28
	sbiw r28,8
	.cfi_def_cfa_offset 12
	in __tmp_reg__,__SREG__
	cli
	out __SP_H__,r29
	out __SREG__,__tmp_reg__
	out __SP_L__,r28
/* prologue: function */
/* frame size = 8 */
/* stack size = 10 */
.L__stack_usage = 10
	std Y+4,r25
	std Y+3,r24
	std Y+6,r23
	std Y+5,r22
	std Y+8,r21
	std Y+7,r20
	.loc 3 161 19
	ldd r20,Y+7
	ldd r21,Y+8
	ldd r18,Y+5
	ldd r19,Y+6
	ldd r24,Y+3
	ldd r25,Y+4
	movw r22,r18
	rcall _ZN5Print5printEii
	std Y+2,r25
	std Y+1,r24
	.loc 3 162 15
	ldd r24,Y+3
	ldd r25,Y+4
	rcall _ZN5Print7printlnEv
	movw r18,r24
	.loc 3 162 5
	ldd r24,Y+1
	ldd r25,Y+2
	add r24,r18
	adc r25,r19
	std Y+2,r25
	std Y+1,r24
	.loc 3 163 10
	ldd r24,Y+1
	ldd r25,Y+2
/* epilogue start */
	.loc 3 164 1
	adiw r28,8
	in __tmp_reg__,__SREG__
	cli
	out __SP_H__,r29
	out __SREG__,__tmp_reg__
	out __SP_L__,r28
	pop r29
	pop r28
	ret
	.cfi_endproc
.LFE130:
	.size	_ZN5Print7printlnEii, .-_ZN5Print7printlnEii
	.section	.text._ZN5Print7printlnEji,"ax",@progbits
.global	_ZN5Print7printlnEji
	.type	_ZN5Print7printlnEji, @function
_ZN5Print7printlnEji:
.LFB131:
	.loc 3 167 1
	.cfi_startproc
	push r28
	.cfi_def_cfa_offset 3
	.cfi_offset 28, -2
	push r29
	.cfi_def_cfa_offset 4
	.cfi_offset 29, -3
	in r28,__SP_L__
	in r29,__SP_H__
	.cfi_def_cfa_register 28
	sbiw r28,8
	.cfi_def_cfa_offset 12
	in __tmp_reg__,__SREG__
	cli
	out __SP_H__,r29
	out __SREG__,__tmp_reg__
	out __SP_L__,r28
/* prologue: function */
/* frame size = 8 */
/* stack size = 10 */
.L__stack_usage = 10
	std Y+4,r25
	std Y+3,r24
	std Y+6,r23
	std Y+5,r22
	std Y+8,r21
	std Y+7,r20
	.loc 3 168 19
	ldd r20,Y+7
	ldd r21,Y+8
	ldd r18,Y+5
	ldd r19,Y+6
	ldd r24,Y+3
	ldd r25,Y+4
	movw r22,r18
	rcall _ZN5Print5printEji
	std Y+2,r25
	std Y+1,r24
	.loc 3 169 15
	ldd r24,Y+3
	ldd r25,Y+4
	rcall _ZN5Print7printlnEv
	movw r18,r24
	.loc 3 169 5
	ldd r24,Y+1
	ldd r25,Y+2
	add r24,r18
	adc r25,r19
	std Y+2,r25
	std Y+1,r24
	.loc 3 170 10
	ldd r24,Y+1
	ldd r25,Y+2
/* epilogue start */
	.loc 3 171 1
	adiw r28,8
	in __tmp_reg__,__SREG__
	cli
	out __SP_H__,r29
	out __SREG__,__tmp_reg__
	out __SP_L__,r28
	pop r29
	pop r28
	ret
	.cfi_endproc
.LFE131:
	.size	_ZN5Print7printlnEji, .-_ZN5Print7printlnEji
	.section	.text._ZN5Print7printlnEli,"ax",@progbits
.global	_ZN5Print7printlnEli
	.type	_ZN5Print7printlnEli, @function
_ZN5Print7printlnEli:
.LFB132:
	.loc 3 174 1
	.cfi_startproc
	push r28
	.cfi_def_cfa_offset 3
	.cfi_offset 28, -2
	push r29
	.cfi_def_cfa_offset 4
	.cfi_offset 29, -3
	in r28,__SP_L__
	in r29,__SP_H__
	.cfi_def_cfa_register 28
	sbiw r28,10
	.cfi_def_cfa_offset 14
	in __tmp_reg__,__SREG__
	cli
	out __SP_H__,r29
	out __SREG__,__tmp_reg__
	out __SP_L__,r28
/* prologue: function */
/* frame size = 10 */
/* stack size = 12 */
.L__stack_usage = 12
	std Y+4,r25
	std Y+3,r24
	std Y+5,r20
	std Y+6,r21
	std Y+7,r22
	std Y+8,r23
	std Y+10,r19
	std Y+9,r18
	.loc 3 175 19
	ldd r18,Y+9
	ldd r19,Y+10
	ldd r24,Y+5
	ldd r25,Y+6
	ldd r26,Y+7
	ldd r27,Y+8
	ldd r30,Y+3
	ldd r31,Y+4
	movw r20,r24
	movw r22,r26
	movw r24,r30
	rcall _ZN5Print5printEli
	std Y+2,r25
	std Y+1,r24
	.loc 3 176 15
	ldd r24,Y+3
	ldd r25,Y+4
	rcall _ZN5Print7printlnEv
	movw r18,r24
	.loc 3 176 5
	ldd r24,Y+1
	ldd r25,Y+2
	add r24,r18
	adc r25,r19
	std Y+2,r25
	std Y+1,r24
	.loc 3 177 10
	ldd r24,Y+1
	ldd r25,Y+2
/* epilogue start */
	.loc 3 178 1
	adiw r28,10
	in __tmp_reg__,__SREG__
	cli
	out __SP_H__,r29
	out __SREG__,__tmp_reg__
	out __SP_L__,r28
	pop r29
	pop r28
	ret
	.cfi_endproc
.LFE132:
	.size	_ZN5Print7printlnEli, .-_ZN5Print7printlnEli
	.section	.text._ZN5Print7printlnEmi,"ax",@progbits
.global	_ZN5Print7printlnEmi
	.type	_ZN5Print7printlnEmi, @function
_ZN5Print7printlnEmi:
.LFB133:
	.loc 3 181 1
	.cfi_startproc
	push r28
	.cfi_def_cfa_offset 3
	.cfi_offset 28, -2
	push r29
	.cfi_def_cfa_offset 4
	.cfi_offset 29, -3
	in r28,__SP_L__
	in r29,__SP_H__
	.cfi_def_cfa_register 28
	sbiw r28,10
	.cfi_def_cfa_offset 14
	in __tmp_reg__,__SREG__
	cli
	out __SP_H__,r29
	out __SREG__,__tmp_reg__
	out __SP_L__,r28
/* prologue: function */
/* frame size = 10 */
/* stack size = 12 */
.L__stack_usage = 12
	std Y+4,r25
	std Y+3,r24
	std Y+5,r20
	std Y+6,r21
	std Y+7,r22
	std Y+8,r23
	std Y+10,r19
	std Y+9,r18
	.loc 3 182 19
	ldd r18,Y+9
	ldd r19,Y+10
	ldd r24,Y+5
	ldd r25,Y+6
	ldd r26,Y+7
	ldd r27,Y+8
	ldd r30,Y+3
	ldd r31,Y+4
	movw r20,r24
	movw r22,r26
	movw r24,r30
	rcall _ZN5Print5printEmi
	std Y+2,r25
	std Y+1,r24
	.loc 3 183 15
	ldd r24,Y+3
	ldd r25,Y+4
	rcall _ZN5Print7printlnEv
	movw r18,r24
	.loc 3 183 5
	ldd r24,Y+1
	ldd r25,Y+2
	add r24,r18
	adc r25,r19
	std Y+2,r25
	std Y+1,r24
	.loc 3 184 10
	ldd r24,Y+1
	ldd r25,Y+2
/* epilogue start */
	.loc 3 185 1
	adiw r28,10
	in __tmp_reg__,__SREG__
	cli
	out __SP_H__,r29
	out __SREG__,__tmp_reg__
	out __SP_L__,r28
	pop r29
	pop r28
	ret
	.cfi_endproc
.LFE133:
	.size	_ZN5Print7printlnEmi, .-_ZN5Print7printlnEmi
	.section	.text._ZN5Print7printlnEdi,"ax",@progbits
.global	_ZN5Print7printlnEdi
	.type	_ZN5Print7printlnEdi, @function
_ZN5Print7printlnEdi:
.LFB134:
	.loc 3 188 1
	.cfi_startproc
	push r28
	.cfi_def_cfa_offset 3
	.cfi_offset 28, -2
	push r29
	.cfi_def_cfa_offset 4
	.cfi_offset 29, -3
	in r28,__SP_L__
	in r29,__SP_H__
	.cfi_def_cfa_register 28
	sbiw r28,10
	.cfi_def_cfa_offset 14
	in __tmp_reg__,__SREG__
	cli
	out __SP_H__,r29
	out __SREG__,__tmp_reg__
	out __SP_L__,r28
/* prologue: function */
/* frame size = 10 */
/* stack size = 12 */
.L__stack_usage = 12
	std Y+4,r25
	std Y+3,r24
	std Y+5,r20
	std Y+6,r21
	std Y+7,r22
	std Y+8,r23
	std Y+10,r19
	std Y+9,r18
	.loc 3 189 19
	ldd r18,Y+9
	ldd r19,Y+10
	ldd r24,Y+5
	ldd r25,Y+6
	ldd r26,Y+7
	ldd r27,Y+8
	ldd r30,Y+3
	ldd r31,Y+4
	movw r20,r24
	movw r22,r26
	movw r24,r30
	rcall _ZN5Print5printEdi
	std Y+2,r25
	std Y+1,r24
	.loc 3 190 15
	ldd r24,Y+3
	ldd r25,Y+4
	rcall _ZN5Print7printlnEv
	movw r18,r24
	.loc 3 190 5
	ldd r24,Y+1
	ldd r25,Y+2
	add r24,r18
	adc r25,r19
	std Y+2,r25
	std Y+1,r24
	.loc 3 191 10
	ldd r24,Y+1
	ldd r25,Y+2
/* epilogue start */
	.loc 3 192 1
	adiw r28,10
	in __tmp_reg__,__SREG__
	cli
	out __SP_H__,r29
	out __SREG__,__tmp_reg__
	out __SP_L__,r28
	pop r29
	pop r28
	ret
	.cfi_endproc
.LFE134:
	.size	_ZN5Print7printlnEdi, .-_ZN5Print7printlnEdi
	.section	.text._ZN5Print7printlnERK9Printable,"ax",@progbits
.global	_ZN5Print7printlnERK9Printable
	.type	_ZN5Print7printlnERK9Printable, @function
_ZN5Print7printlnERK9Printable:
.LFB135:
	.loc 3 195 1
	.cfi_startproc
	push r28
	.cfi_def_cfa_offset 3
	.cfi_offset 28, -2
	push r29
	.cfi_def_cfa_offset 4
	.cfi_offset 29, -3
	rcall .
	rcall .
	rcall .
	.cfi_def_cfa_offset 10
	in r28,__SP_L__
	in r29,__SP_H__
	.cfi_def_cfa_register 28
/* prologue: function */
/* frame size = 6 */
/* stack size = 8 */
.L__stack_usage = 8
	std Y+4,r25
	std Y+3,r24
	std Y+6,r23
	std Y+5,r22
	.loc 3 196 19
	ldd r18,Y+5
	ldd r19,Y+6
	ldd r24,Y+3
	ldd r25,Y+4
	movw r22,r18
	rcall _ZN5Print5printERK9Printable
	std Y+2,r25
	std Y+1,r24
	.loc 3 197 15
	ldd r24,Y+3
	ldd r25,Y+4
	rcall _ZN5Print7printlnEv
	movw r18,r24
	.loc 3 197 5
	ldd r24,Y+1
	ldd r25,Y+2
	add r24,r18
	adc r25,r19
	std Y+2,r25
	std Y+1,r24
	.loc 3 198 10
	ldd r24,Y+1
	ldd r25,Y+2
/* epilogue start */
	.loc 3 199 1
	adiw r28,6
	in __tmp_reg__,__SREG__
	cli
	out __SP_H__,r29
	out __SREG__,__tmp_reg__
	out __SP_L__,r28
	pop r29
	pop r28
	ret
	.cfi_endproc
.LFE135:
	.size	_ZN5Print7printlnERK9Printable, .-_ZN5Print7printlnERK9Printable
	.section	.text._ZN5Print11printNumberEmh,"ax",@progbits
.global	_ZN5Print11printNumberEmh
	.type	_ZN5Print11printNumberEmh, @function
_ZN5Print11printNumberEmh:
.LFB136:
	.loc 3 204 1
	.cfi_startproc
	push r28
	.cfi_def_cfa_offset 3
	.cfi_offset 28, -2
	push r29
	.cfi_def_cfa_offset 4
	.cfi_offset 29, -3
	in r28,__SP_L__
	in r29,__SP_H__
	.cfi_def_cfa_register 28
	sbiw r28,43
	.cfi_def_cfa_offset 47
	in __tmp_reg__,__SREG__
	cli
	out __SP_H__,r29
	out __SREG__,__tmp_reg__
	out __SP_L__,r28
/* prologue: function */
/* frame size = 43 */
/* stack size = 45 */
.L__stack_usage = 45
	std Y+38,r25
	std Y+37,r24
	std Y+39,r20
	std Y+40,r21
	std Y+41,r22
	std Y+42,r23
	std Y+43,r18
	.loc 3 206 9
	movw r24,r28
	adiw r24,4
	adiw r24,32
	std Y+2,r25
	std Y+1,r24
	.loc 3 208 8
	ldd r24,Y+1
	ldd r25,Y+2
	movw r30,r24
	st Z,__zero_reg__
	.loc 3 211 3
	ldd r24,Y+43
	cpi r24,lo8(2)
	brsh .L85
	.loc 3 211 22
	ldi r24,lo8(10)
	std Y+43,r24
.L85:
.LBB11:
	.loc 3 214 16
	ldd r24,Y+43
	mov r18,r24
	ldi r19,0
	ldi r20,0
	ldi r21,0
	ldd r24,Y+39
	ldd r25,Y+40
	ldd r26,Y+41
	ldd r27,Y+42
	movw r22,r24
	movw r24,r26
	rcall __udivmodsi4
	movw r26,r24
	movw r24,r22
	.loc 3 214 10
	std Y+3,r24
	.loc 3 215 7
	ldd r24,Y+43
	mov r18,r24
	ldi r19,0
	ldi r20,0
	ldi r21,0
	ldd r24,Y+39
	ldd r25,Y+40
	ldd r26,Y+41
	ldd r27,Y+42
	movw r22,r24
	movw r24,r26
	rcall __udivmodsi4
	movw r26,r20
	movw r24,r18
	std Y+39,r24
	std Y+40,r25
	std Y+41,r26
	std Y+42,r27
	.loc 3 217 12
	ldd r24,Y+3
	cpi r24,lo8(10)
	brsh .L82
	.loc 3 217 12 is_stmt 0
	ldd r24,Y+3
	ldi r18,lo8(48)
	add r18,r24
	rjmp .L83
.L82:
	.loc 3 217 12
	ldd r24,Y+3
	ldi r18,lo8(55)
	add r18,r24
.L83:
	.loc 3 217 12
	ldd r24,Y+1
	ldd r25,Y+2
	sbiw r24,1
	std Y+2,r25
	std Y+1,r24
	ldd r24,Y+1
	ldd r25,Y+2
	movw r30,r24
	st Z,r18
.LBE11:
	.loc 3 218 11 is_stmt 1
	ldd r24,Y+39
	ldd r25,Y+40
	ldd r26,Y+41
	ldd r27,Y+42
	or r24,r25
	or r24,r26
	or r24,r27
	breq .L84
	.loc 3 213 3
	rjmp .L85
.L84:
	.loc 3 220 15
	ldd r18,Y+1
	ldd r19,Y+2
	ldd r24,Y+37
	ldd r25,Y+38
	movw r22,r18
	rcall _ZN5Print5writeEPKc
	.loc 3 220 19
	nop
/* epilogue start */
	.loc 3 221 1
	adiw r28,43
	in __tmp_reg__,__SREG__
	cli
	out __SP_H__,r29
	out __SREG__,__tmp_reg__
	out __SP_L__,r28
	pop r29
	pop r28
	ret
	.cfi_endproc
.LFE136:
	.size	_ZN5Print11printNumberEmh, .-_ZN5Print11printNumberEmh
.global	__unordsf2
	.section	.rodata
.LC1:
	.string	"nan"
.global	__lesf2
.LC2:
	.string	"inf"
.global	__gtsf2
.LC3:
	.string	"ovf"
.global	__ltsf2
.global	__divsf3
.global	__addsf3
.global	__fixunssfsi
.global	__floatunsisf
.global	__subsf3
.global	__mulsf3
	.section	.text._ZN5Print10printFloatEdh,"ax",@progbits
.global	_ZN5Print10printFloatEdh
	.type	_ZN5Print10printFloatEdh, @function
_ZN5Print10printFloatEdh:
.LFB137:
	.loc 3 224 1
	.cfi_startproc
	push r12
	.cfi_def_cfa_offset 3
	.cfi_offset 12, -2
	push r13
	.cfi_def_cfa_offset 4
	.cfi_offset 13, -3
	push r14
	.cfi_def_cfa_offset 5
	.cfi_offset 14, -4
	push r15
	.cfi_def_cfa_offset 6
	.cfi_offset 15, -5
	push r17
	.cfi_def_cfa_offset 7
	.cfi_offset 17, -6
	push r28
	.cfi_def_cfa_offset 8
	.cfi_offset 28, -7
	push r29
	.cfi_def_cfa_offset 9
	.cfi_offset 29, -8
	in r28,__SP_L__
	in r29,__SP_H__
	.cfi_def_cfa_register 28
	sbiw r28,24
	.cfi_def_cfa_offset 33
	in __tmp_reg__,__SREG__
	cli
	out __SP_H__,r29
	out __SREG__,__tmp_reg__
	out __SP_L__,r28
/* prologue: function */
/* frame size = 24 */
/* stack size = 31 */
.L__stack_usage = 31
	std Y+19,r25
	std Y+18,r24
	std Y+20,r20
	std Y+21,r21
	std Y+22,r22
	std Y+23,r23
	std Y+24,r18
	.loc 3 225 10
	std Y+2,__zero_reg__
	std Y+1,__zero_reg__
	.loc 3 227 20
	ldd r18,Y+20
	ldd r19,Y+21
	ldd r20,Y+22
	ldd r21,Y+23
	ldd r22,Y+20
	ldd r23,Y+21
	ldd r24,Y+22
	ldd r25,Y+23
	rcall __unordsf2
.LVL8:
	tst r24
	breq .L112
	.loc 3 227 20 is_stmt 0
	ldi r24,lo8(1)
	rjmp .L90
.L112:
	.loc 3 227 20
	ldi r24,0
.L90:
	.loc 3 227 3 is_stmt 1
	tst r24
	breq .L91
	.loc 3 227 34
	ldd r24,Y+18
	ldd r25,Y+19
	ldi r22,lo8(.LC1)
	ldi r23,hi8(.LC1)
	rcall _ZN5Print5printEPKc
	.loc 3 227 40
	rjmp .L107
.L91:
	.loc 3 228 12
	ldd r24,Y+20
	ldd r25,Y+21
	ldd r26,Y+22
	ldd r27,Y+23
	movw r12,r24
	movw r14,r26
	clt
	bld r15,7
	.loc 3 228 20
	ldi r17,lo8(1)
	ldi r18,lo8(-1)
	ldi r19,lo8(-1)
	ldi r20,lo8(127)
	ldi r21,lo8(127)
	movw r24,r14
	movw r22,r12
	rcall __unordsf2
.LVL9:
	tst r24
	brne .L93
	ldi r18,lo8(-1)
	ldi r19,lo8(-1)
	ldi r20,lo8(127)
	ldi r21,lo8(127)
	movw r24,r14
	movw r22,r12
	rcall __lesf2
.LVL10:
	cp __zero_reg__,r24
	brge .L93
	ldi r17,0
.L93:
	ldi r24,lo8(1)
	eor r24,r17
	mov r24,r24
	ldi r25,0
	andi r24,lo8(1)
	.loc 3 228 3
	tst r24
	breq .L94
	.loc 3 228 34
	ldd r24,Y+18
	ldd r25,Y+19
	ldi r22,lo8(.LC2)
	ldi r23,hi8(.LC2)
	rcall _ZN5Print5printEPKc
	.loc 3 228 40
	rjmp .L107
.L94:
	.loc 3 229 3
	ldi r18,lo8(-1)
	ldi r19,lo8(-1)
	ldi r20,lo8(127)
	ldi r21,lo8(79)
	ldd r22,Y+20
	ldd r23,Y+21
	ldd r24,Y+22
	ldd r25,Y+23
	rcall __gtsf2
.LVL11:
	cp __zero_reg__,r24
	brge .L113
	.loc 3 229 43
	ldd r24,Y+18
	ldd r25,Y+19
	ldi r22,lo8(.LC3)
	ldi r23,hi8(.LC3)
	rcall _ZN5Print5printEPKc
	.loc 3 229 49
	rjmp .L107
.L113:
	.loc 3 230 3
	ldi r18,lo8(-1)
	ldi r19,lo8(-1)
	ldi r20,lo8(127)
	ldi r21,lo8(-49)
	ldd r22,Y+20
	ldd r23,Y+21
	ldd r24,Y+22
	ldd r25,Y+23
	rcall __ltsf2
.LVL12:
	tst r24
	brge .L114
	.loc 3 230 43
	ldd r24,Y+18
	ldd r25,Y+19
	ldi r22,lo8(.LC3)
	ldi r23,hi8(.LC3)
	rcall _ZN5Print5printEPKc
	.loc 3 230 49
	rjmp .L107
.L114:
	.loc 3 233 3
	ldi r18,0
	ldi r19,0
	movw r20,r18
	ldd r22,Y+20
	ldd r23,Y+21
	ldd r24,Y+22
	ldd r25,Y+23
	rcall __ltsf2
.LVL13:
	tst r24
	brge .L99
	.loc 3 235 16
	ldd r24,Y+18
	ldd r25,Y+19
	ldi r22,lo8(45)
	rcall _ZN5Print5printEc
	movw r18,r24
	.loc 3 235 8
	ldd r24,Y+1
	ldd r25,Y+2
	add r24,r18
	adc r25,r19
	std Y+2,r25
	std Y+1,r24
	.loc 3 236 13
	ldd r24,Y+20
	ldd r25,Y+21
	ldd r26,Y+22
	ldd r27,Y+23
	subi r27,0x80
	std Y+20,r24
	std Y+21,r25
	std Y+22,r26
	std Y+23,r27
.L99:
	.loc 3 240 10
	ldi r24,0
	ldi r25,0
	ldi r26,0
	ldi r27,lo8(63)
	std Y+3,r24
	std Y+4,r25
	std Y+5,r26
	std Y+6,r27
.LBB12:
	.loc 3 241 16
	std Y+7,__zero_reg__
.L102:
	.loc 3 241 22
	ldd r25,Y+7
	ldd r24,Y+24
	cp r25,r24
	brsh .L101
	.loc 3 242 14
	ldi r18,0
	ldi r19,0
	ldi r20,lo8(32)
	ldi r21,lo8(65)
	ldd r22,Y+3
	ldd r23,Y+4
	ldd r24,Y+5
	ldd r25,Y+6
	rcall __divsf3
.LVL14:
	movw r26,r24
	movw r24,r22
	std Y+3,r24
	std Y+4,r25
	std Y+5,r26
	std Y+6,r27
	.loc 3 241 3
	ldd r24,Y+7
	subi r24,lo8(-(1))
	std Y+7,r24
	rjmp .L102
.L101:
.LBE12:
	.loc 3 244 10
	ldd r18,Y+3
	ldd r19,Y+4
	ldd r20,Y+5
	ldd r21,Y+6
	ldd r22,Y+20
	ldd r23,Y+21
	ldd r24,Y+22
	ldd r25,Y+23
	rcall __addsf3
.LVL15:
	movw r26,r24
	movw r24,r22
	std Y+20,r24
	std Y+21,r25
	std Y+22,r26
	std Y+23,r27
	.loc 3 247 17
	ldd r22,Y+20
	ldd r23,Y+21
	ldd r24,Y+22
	ldd r25,Y+23
	rcall __fixunssfsi
.LVL16:
	movw r26,r24
	movw r24,r22
	std Y+8,r24
	std Y+9,r25
	std Y+10,r26
	std Y+11,r27
	.loc 3 248 31
	ldd r22,Y+8
	ldd r23,Y+9
	ldd r24,Y+10
	ldd r25,Y+11
	rcall __floatunsisf
.LVL17:
	movw r26,r24
	movw r24,r22
	.loc 3 248 29
	movw r18,r24
	movw r20,r26
	ldd r22,Y+20
	ldd r23,Y+21
	ldd r24,Y+22
	ldd r25,Y+23
	rcall __subsf3
.LVL18:
	movw r26,r24
	movw r24,r22
	.loc 3 248 10
	std Y+14,r24
	std Y+15,r25
	std Y+16,r26
	std Y+17,r27
	.loc 3 249 13
	ldd r24,Y+8
	ldd r25,Y+9
	ldd r26,Y+10
	ldd r27,Y+11
	ldd r30,Y+18
	ldd r31,Y+19
	ldi r18,lo8(10)
	ldi r19,0
	movw r20,r24
	movw r22,r26
	movw r24,r30
	rcall _ZN5Print5printEmi
	movw r18,r24
	.loc 3 249 5
	ldd r24,Y+1
	ldd r25,Y+2
	add r24,r18
	adc r25,r19
	std Y+2,r25
	std Y+1,r24
	.loc 3 252 3
	ldd r24,Y+24
	tst r24
	breq .L106
	.loc 3 253 15
	ldd r24,Y+18
	ldd r25,Y+19
	ldi r22,lo8(46)
	rcall _ZN5Print5printEc
	movw r18,r24
	.loc 3 253 7
	ldd r24,Y+1
	ldd r25,Y+2
	add r24,r18
	adc r25,r19
	std Y+2,r25
	std Y+1,r24
.L106:
	.loc 3 257 16
	ldd r24,Y+24
	ldi r25,lo8(-1)
	add r25,r24
	std Y+24,r25
	.loc 3 257 19
	ldi r25,lo8(1)
	tst r24
	brne .L104
	ldi r25,0
.L104:
	tst r25
	brne .+2
	rjmp .L105
.LBB13:
	.loc 3 259 15
	ldd r24,Y+14
	ldd r25,Y+15
	ldd r26,Y+16
	ldd r27,Y+17
	ldi r18,0
	ldi r19,0
	ldi r20,lo8(32)
	ldi r21,lo8(65)
	movw r22,r24
	movw r24,r26
	rcall __mulsf3
.LVL19:
	movw r26,r24
	movw r24,r22
	std Y+14,r24
	std Y+15,r25
	std Y+16,r26
	std Y+17,r27
	.loc 3 260 28
	ldd r24,Y+14
	ldd r25,Y+15
	ldd r26,Y+16
	ldd r27,Y+17
	.loc 3 260 18
	movw r22,r24
	movw r24,r26
	rcall __fixunssfsi
.LVL20:
	movw r26,r24
	movw r24,r22
	std Y+13,r25
	std Y+12,r24
	.loc 3 261 15
	ldd r18,Y+12
	ldd r19,Y+13
	ldd r24,Y+18
	ldd r25,Y+19
	ldi r20,lo8(10)
	ldi r21,0
	movw r22,r18
	rcall _ZN5Print5printEji
	movw r18,r24
	.loc 3 261 7
	ldd r24,Y+1
	ldd r25,Y+2
	add r24,r18
	adc r25,r19
	std Y+2,r25
	std Y+1,r24
	.loc 3 262 15
	ldd r12,Y+14
	ldd r13,Y+15
	ldd r14,Y+16
	ldd r15,Y+17
	ldd r24,Y+12
	ldd r25,Y+13
	movw r24,r24
	ldi r26,0
	ldi r27,0
	movw r22,r24
	movw r24,r26
	rcall __floatunsisf
.LVL21:
	movw r26,r24
	movw r24,r22
	movw r18,r24
	movw r20,r26
	movw r24,r14
	movw r22,r12
	rcall __subsf3
.LVL22:
	movw r26,r24
	movw r24,r22
	std Y+14,r24
	std Y+15,r25
	std Y+16,r26
	std Y+17,r27
.LBE13:
	.loc 3 257 3
	rjmp .L106
.L105:
	.loc 3 265 10
	ldd r24,Y+1
	ldd r25,Y+2
.L107:
/* epilogue start */
	.loc 3 266 1
	adiw r28,24
	in __tmp_reg__,__SREG__
	cli
	out __SP_H__,r29
	out __SREG__,__tmp_reg__
	out __SP_L__,r28
	pop r29
	pop r28
	pop r17
	pop r15
	pop r14
	pop r13
	pop r12
	ret
	.cfi_endproc
.LFE137:
	.size	_ZN5Print10printFloatEdh, .-_ZN5Print10printFloatEdh
	.weak	_ZTV5Print
	.section	.rodata._ZTV5Print,"aG",@progbits,_ZTV5Print,comdat
	.type	_ZTV5Print, @object
	.size	_ZTV5Print, 12
_ZTV5Print:
	.word	0
	.word	0
	.word	gs(__cxa_pure_virtual)
	.word	gs(_ZN5Print5writeEPKhj)
	.word	gs(_ZN5Print17availableForWriteEv)
	.word	gs(_ZN5Print5flushEv)
	.text
.Letext0:
	.file 4 "/usr/local/avr/avr/include/stdlib.h"
	.file 5 "/usr/local/avr/lib/gcc/avr/8.2.0/include/stddef.h"
	.file 6 "/usr/local/avr/avr/include/stdint.h"
	.file 7 "/usr/local/avr/avr/include/stdio.h"
	.file 8 "/data/git/ECA-Arduino-Project/SoftwareSerial/Arduino.h"
	.file 9 "/data/git/ECA-Arduino-Project/SoftwareSerial/HardwareSerial.h"
	.file 10 "/data/git/ECA-Arduino-Project/SoftwareSerial/pins_arduino.h"
	.file 11 "/data/git/ECA-Arduino-Project/SoftwareSerial/Stream.h"