	.file	"Stream.cpp"
__SP_H__ = 0x3e
__SP_L__ = 0x3d
__SREG__ = 0x3f
__tmp_reg__ = 0
__zero_reg__ = 1
	.text
.Ltext0:
	.cfi_sections	.debug_frame
	.section	.text._ZN6StringpLEc,"axG",@progbits,_ZN6StringpLEc,comdat
	.weak	_ZN6StringpLEc
	.type	_ZN6StringpLEc, @function
_ZN6StringpLEc:
.LFB27:
	.file 1 "/data/git/ECA-Arduino-Project/SoftwareSerial/WString.h"
	.loc 1 115 11
	.cfi_startproc
	push r28
	.cfi_def_cfa_offset 3
	.cfi_offset 28, -2
	push r29
	.cfi_def_cfa_offset 4
	.cfi_offset 29, -3
	rcall .
	push __tmp_reg__
	.cfi_def_cfa_offset 7
	in r28,__SP_L__
	in r29,__SP_H__
	.cfi_def_cfa_register 28
/* prologue: function */
/* frame size = 3 */
/* stack size = 5 */
.L__stack_usage = 5
	std Y+2,r25
	std Y+1,r24
	std Y+3,r22
	.loc 1 115 39
	ldd r24,Y+1
	ldd r25,Y+2
	ldd r22,Y+3
	rcall _ZN6String6concatEc
	.loc 1 115 57
	ldd r24,Y+1
	ldd r25,Y+2
/* epilogue start */
	.loc 1 115 59
	pop __tmp_reg__
	pop __tmp_reg__
	pop __tmp_reg__
	pop r29
	pop r28
	ret
	.cfi_endproc
.LFE27:
	.size	_ZN6StringpLEc, .-_ZN6StringpLEc
	.section	.rodata
	.type	_ZL2SS, @object
	.size	_ZL2SS, 1
_ZL2SS:
	.byte	10
	.type	_ZL4MOSI, @object
	.size	_ZL4MOSI, 1
_ZL4MOSI:
	.byte	11
	.type	_ZL4MISO, @object
	.size	_ZL4MISO, 1
_ZL4MISO:
	.byte	12
	.type	_ZL3SCK, @object
	.size	_ZL3SCK, 1
_ZL3SCK:
	.byte	13
	.type	_ZL3SDA, @object
	.size	_ZL3SDA, 1
_ZL3SDA:
	.byte	18
	.type	_ZL3SCL, @object
	.size	_ZL3SCL, 1
_ZL3SCL:
	.byte	19
	.type	_ZL2A0, @object
	.size	_ZL2A0, 1
_ZL2A0:
	.byte	14
	.type	_ZL2A1, @object
	.size	_ZL2A1, 1
_ZL2A1:
	.byte	15
	.type	_ZL2A2, @object
	.size	_ZL2A2, 1
_ZL2A2:
	.byte	16
	.type	_ZL2A3, @object
	.size	_ZL2A3, 1
_ZL2A3:
	.byte	17
	.type	_ZL2A4, @object
	.size	_ZL2A4, 1
_ZL2A4:
	.byte	18
	.type	_ZL2A5, @object
	.size	_ZL2A5, 1
_ZL2A5:
	.byte	19
	.type	_ZL2A6, @object
	.size	_ZL2A6, 1
_ZL2A6:
	.byte	20
	.type	_ZL2A7, @object
	.size	_ZL2A7, 1
_ZL2A7:
	.byte	21
	.section	.text._ZN6Stream9timedReadEv,"ax",@progbits
.global	_ZN6Stream9timedReadEv
	.type	_ZN6Stream9timedReadEv, @function
_ZN6Stream9timedReadEv:
.LFB112:
	.file 2 "/data/git/ECA-Arduino-Project/SoftwareSerial/Stream.cpp"
	.loc 2 32 1
	.cfi_startproc
	push r28
	.cfi_def_cfa_offset 3
	.cfi_offset 28, -2
	push r29
	.cfi_def_cfa_offset 4
	.cfi_offset 29, -3
	rcall .
	rcall .
	.cfi_def_cfa_offset 8
	in r28,__SP_L__
	in r29,__SP_H__
	.cfi_def_cfa_register 28
/* prologue: function */
/* frame size = 4 */
/* stack size = 6 */
.L__stack_usage = 6
	std Y+4,r25
	std Y+3,r24
	.loc 2 34 24
	rcall millis
	movw r26,r24
	movw r24,r22
	.loc 2 34 16
	ldd r18,Y+3
	ldd r19,Y+4
	movw r30,r18
	std Z+8,r24
	std Z+9,r25
	std Z+10,r26
	std Z+11,r27
.L8:
	.loc 2 36 14
	ldd r24,Y+3
	ldd r25,Y+4
	movw r30,r24
	ld r24,Z
	ldd r25,Z+1
	adiw r24,10
	movw r30,r24
	ld r18,Z
	ldd r19,Z+1
	.loc 2 36 13
	ldd r24,Y+3
	ldd r25,Y+4
	movw r30,r18
	icall
.LVL0:
	std Y+2,r25
	std Y+1,r24
	.loc 2 37 5
	ldd r24,Y+1
	ldd r25,Y+2
	tst r25
	brlt .L4
	.loc 2 37 24
	ldd r24,Y+1
	ldd r25,Y+2
	rjmp .L5
.L4:
	.loc 2 38 17
	rcall millis
	movw r18,r22
	movw r20,r24
	.loc 2 38 22
	ldd r24,Y+3
	ldd r25,Y+4
	movw r30,r24
	ldd r24,Z+8
	ldd r25,Z+9
	ldd r26,Z+10
	ldd r27,Z+11
	.loc 2 38 20
	sub r18,r24
	sbc r19,r25
	sbc r20,r26
	sbc r21,r27
	.loc 2 38 37
	ldd r24,Y+3
	ldd r25,Y+4
	movw r30,r24
	ldd r24,Z+4
	ldd r25,Z+5
	ldd r26,Z+6
	ldd r27,Z+7
	.loc 2 38 35
	ldi r22,lo8(1)
	cp r18,r24
	cpc r19,r25
	cpc r20,r26
	cpc r21,r27
	brlo .L6
	ldi r22,0
.L6:
	tst r22
	breq .L7
	.loc 2 35 3
	rjmp .L8
.L7:
	.loc 2 39 11
	ldi r24,lo8(-1)
	ldi r25,lo8(-1)
.L5:
/* epilogue start */
	.loc 2 40 1
	pop __tmp_reg__
	pop __tmp_reg__
	pop __tmp_reg__
	pop __tmp_reg__
	pop r29
	pop r28
	ret
	.cfi_endproc
.LFE112:
	.size	_ZN6Stream9timedReadEv, .-_ZN6Stream9timedReadEv
	.section	.text._ZN6Stream9timedPeekEv,"ax",@progbits
.global	_ZN6Stream9timedPeekEv
	.type	_ZN6Stream9timedPeekEv, @function
_ZN6Stream9timedPeekEv:
.LFB113:
	.loc 2 44 1
	.cfi_startproc
	push r28
	.cfi_def_cfa_offset 3
	.cfi_offset 28, -2
	push r29
	.cfi_def_cfa_offset 4
	.cfi_offset 29, -3
	rcall .
	rcall .
	.cfi_def_cfa_offset 8
	in r28,__SP_L__
	in r29,__SP_H__
	.cfi_def_cfa_register 28
/* prologue: function */
/* frame size = 4 */
/* stack size = 6 */
.L__stack_usage = 6
	std Y+4,r25
	std Y+3,r24
	.loc 2 46 24
	rcall millis
	movw r26,r24
	movw r24,r22
	.loc 2 46 16
	ldd r18,Y+3
	ldd r19,Y+4
	movw r30,r18
	std Z+8,r24
	std Z+9,r25
	std Z+10,r26
	std Z+11,r27
.L14:
	.loc 2 48 14
	ldd r24,Y+3
	ldd r25,Y+4
	movw r30,r24
	ld r24,Z
	ldd r25,Z+1
	adiw r24,12
	movw r30,r24
	ld r18,Z
	ldd r19,Z+1
	.loc 2 48 13
	ldd r24,Y+3
	ldd r25,Y+4
	movw r30,r18
	icall
.LVL1:
	std Y+2,r25
	std Y+1,r24
	.loc 2 49 5
	ldd r24,Y+1
	ldd r25,Y+2
	tst r25
	brlt .L10
	.loc 2 49 24
	ldd r24,Y+1
	ldd r25,Y+2
	rjmp .L11
.L10:
	.loc 2 50 17
	rcall millis
	movw r18,r22
	movw r20,r24
	.loc 2 50 22
	ldd r24,Y+3
	ldd r25,Y+4
	movw r30,r24
	ldd r24,Z+8
	ldd r25,Z+9
	ldd r26,Z+10
	ldd r27,Z+11
	.loc 2 50 20
	sub r18,r24
	sbc r19,r25
	sbc r20,r26
	sbc r21,r27
	.loc 2 50 37
	ldd r24,Y+3
	ldd r25,Y+4
	movw r30,r24
	ldd r24,Z+4
	ldd r25,Z+5
	ldd r26,Z+6
	ldd r27,Z+7
	.loc 2 50 35
	ldi r22,lo8(1)
	cp r18,r24
	cpc r19,r25
	cpc r20,r26
	cpc r21,r27
	brlo .L12
	ldi r22,0
.L12:
	tst r22
	breq .L13
	.loc 2 47 3
	rjmp .L14
.L13:
	.loc 2 51 11
	ldi r24,lo8(-1)
	ldi r25,lo8(-1)
.L11:
/* epilogue start */
	.loc 2 52 1
	pop __tmp_reg__
	pop __tmp_reg__
	pop __tmp_reg__
	pop __tmp_reg__
	pop r29
	pop r28
	ret
	.cfi_endproc
.LFE113:
	.size	_ZN6Stream9timedPeekEv, .-_ZN6Stream9timedPeekEv
	.section	.text._ZN6Stream13peekNextDigitE13LookaheadModeb,"ax",@progbits
.global	_ZN6Stream13peekNextDigitE13LookaheadModeb
	.type	_ZN6Stream13peekNextDigitE13LookaheadModeb, @function
_ZN6Stream13peekNextDigitE13LookaheadModeb:
.LFB114:
	.loc 2 57 1
	.cfi_startproc
	push r28
	.cfi_def_cfa_offset 3
	.cfi_offset 28, -2
	push r29
	.cfi_def_cfa_offset 4
	.cfi_offset 29, -3
	rcall .
	rcall .
	rcall .
	.cfi_def_cfa_offset 10
	in r28,__SP_L__
	in r29,__SP_H__
	.cfi_def_cfa_register 28
/* prologue: function */
/* frame size = 6 */
/* stack size = 8 */
.L__stack_usage = 8
	std Y+4,r25
	std Y+3,r24
	std Y+5,r22
	std Y+6,r20
.L27:
	.loc 2 60 18
	ldd r24,Y+3
	ldd r25,Y+4
	rcall _ZN6Stream9timedPeekEv
	std Y+2,r25
	std Y+1,r24
	.loc 2 62 5
	ldd r24,Y+1
	ldd r25,Y+2
	tst r25
	brlt .L16
	.loc 2 62 15
	ldd r24,Y+1
	ldd r25,Y+2
	sbiw r24,45
	breq .L16
	.loc 2 63 18
	ldd r24,Y+1
	ldd r25,Y+2
	sbiw r24,48
	brlt .L17
	.loc 2 64 19
	ldd r24,Y+1
	ldd r25,Y+2
	sbiw r24,58
	brlt .L16
.L17:
	.loc 2 64 32
	ldd r24,Y+6
	tst r24
	breq .L18
	.loc 2 65 24
	ldd r24,Y+1
	ldd r25,Y+2
	sbiw r24,46
	brne .L18
.L16:
	.loc 2 65 45
	ldd r24,Y+1
	ldd r25,Y+2
	rjmp .L19
.L18:
	.loc 2 67 5
	ldd r24,Y+5
	mov r24,r24
	ldi r25,0
	cpi r24,1
	cpc r25,__zero_reg__
	breq .L20
	sbiw r24,2
	breq .L21
	.loc 2 78 13
	rjmp .L29
.L20:
	.loc 2 68 33
	ldi r24,lo8(-1)
	ldi r25,lo8(-1)
	rjmp .L19
.L21:
	ldd r24,Y+1
	ldd r25,Y+2
	sbiw r24,13
	breq .L28
	ldd r24,Y+1
	ldd r25,Y+2
	sbiw r24,14
	brge .L25
	ldd r24,Y+1
	ldd r25,Y+2
	sbiw r24,9
	sbiw r24,2
	brsh .L26
	.loc 2 74 28
	rjmp .L28
.L25:
	ldd r24,Y+1
	ldd r25,Y+2
	sbiw r24,32
	breq .L28
.L26:
	.loc 2 75 34
	ldi r24,lo8(-1)
	ldi r25,lo8(-1)
	rjmp .L19
.L28:
	.loc 2 74 28
	nop
.L29:
	.loc 2 78 13
	nop
	.loc 2 80 10
	ldd r24,Y+3
	ldd r25,Y+4
	movw r30,r24
	ld r24,Z
	ldd r25,Z+1
	adiw r24,10
	movw r30,r24
	ld r18,Z
	ldd r19,Z+1
	.loc 2 80 9
	ldd r24,Y+3
	ldd r25,Y+4
	movw r30,r18
	icall
.LVL2:
	.loc 2 60 7
	rjmp .L27
.L19:
/* epilogue start */
	.loc 2 82 1
	adiw r28,6
	in __tmp_reg__,__SREG__
	cli
	out __SP_H__,r29
	out __SREG__,__tmp_reg__
	out __SP_L__,r28
	pop r29
	pop r28
	ret
	.cfi_endproc
.LFE114:
	.size	_ZN6Stream13peekNextDigitE13LookaheadModeb, .-_ZN6Stream13peekNextDigitE13LookaheadModeb
	.section	.text._ZN6Stream10setTimeoutEm,"ax",@progbits
.global	_ZN6Stream10setTimeoutEm
	.type	_ZN6Stream10setTimeoutEm, @function
_ZN6Stream10setTimeoutEm:
.LFB115:
	.loc 2 88 1
	.cfi_startproc
	push r28
	.cfi_def_cfa_offset 3
	.cfi_offset 28, -2
	push r29
	.cfi_def_cfa_offset 4
	.cfi_offset 29, -3
	rcall .
	rcall .
	rcall .
	.cfi_def_cfa_offset 10
	in r28,__SP_L__
	in r29,__SP_H__
	.cfi_def_cfa_register 28
/* prologue: function */
/* frame size = 6 */
/* stack size = 8 */
.L__stack_usage = 8
	std Y+2,r25
	std Y+1,r24
	std Y+3,r20
	std Y+4,r21
	std Y+5,r22
	std Y+6,r23
	.loc 2 89 12
	ldd r18,Y+1
	ldd r19,Y+2
	ldd r24,Y+3
	ldd r25,Y+4
	ldd r26,Y+5
	ldd r27,Y+6
	movw r30,r18
	std Z+4,r24
	std Z+5,r25
	std Z+6,r26
	std Z+7,r27
	.loc 2 90 1
	nop
/* epilogue start */
	adiw r28,6
	in __tmp_reg__,__SREG__
	cli
	out __SP_H__,r29
	out __SREG__,__tmp_reg__
	out __SP_L__,r28
	pop r29
	pop r28
	ret
	.cfi_endproc
.LFE115:
	.size	_ZN6Stream10setTimeoutEm, .-_ZN6Stream10setTimeoutEm
	.section	.text._ZN6Stream4findEPc,"ax",@progbits
.global	_ZN6Stream4findEPc
	.type	_ZN6Stream4findEPc, @function
_ZN6Stream4findEPc:
.LFB116:
	.loc 2 94 1
	.cfi_startproc
	push r16
	.cfi_def_cfa_offset 3
	.cfi_offset 16, -2
	push r17
	.cfi_def_cfa_offset 4
	.cfi_offset 17, -3
	push r28
	.cfi_def_cfa_offset 5
	.cfi_offset 28, -4
	push r29
	.cfi_def_cfa_offset 6
	.cfi_offset 29, -5
	rcall .
	rcall .
	.cfi_def_cfa_offset 10
	in r28,__SP_L__
	in r29,__SP_H__
	.cfi_def_cfa_register 28
/* prologue: function */
/* frame size = 4 */
/* stack size = 8 */
.L__stack_usage = 8
	std Y+2,r25
	std Y+1,r24
	std Y+4,r23
	std Y+3,r22
	.loc 2 95 19
	ldd r24,Y+3
	ldd r25,Y+4
	rcall strlen
	movw r20,r24
	ldd r22,Y+3
	ldd r23,Y+4
	ldd r24,Y+1
	ldd r25,Y+2
	ldi r16,0
	ldi r17,0
	ldi r18,0
	ldi r19,0
	rcall _ZN6Stream9findUntilEPcjS0_j
/* epilogue start */
	.loc 2 96 1
	pop __tmp_reg__
	pop __tmp_reg__
	pop __tmp_reg__
	pop __tmp_reg__
	pop r29
	pop r28
	pop r17
	pop r16
	ret
	.cfi_endproc
.LFE116:
	.size	_ZN6Stream4findEPc, .-_ZN6Stream4findEPc
	.section	.text._ZN6Stream4findEPcj,"ax",@progbits
.global	_ZN6Stream4findEPcj
	.type	_ZN6Stream4findEPcj, @function
_ZN6Stream4findEPcj:
.LFB117:
	.loc 2 101 1
	.cfi_startproc
	push r16
	.cfi_def_cfa_offset 3
	.cfi_offset 16, -2
	push r17
	.cfi_def_cfa_offset 4
	.cfi_offset 17, -3
	push r28
	.cfi_def_cfa_offset 5
	.cfi_offset 28, -4
	push r29
	.cfi_def_cfa_offset 6
	.cfi_offset 29, -5
	rcall .
	rcall .
	rcall .
	.cfi_def_cfa_offset 12
	in r28,__SP_L__
	in r29,__SP_H__
	.cfi_def_cfa_register 28
/* prologue: function */
/* frame size = 6 */
/* stack size = 10 */
.L__stack_usage = 10
	std Y+2,r25
	std Y+1,r24
	std Y+4,r23
	std Y+3,r22
	std Y+6,r21
	std Y+5,r20
	.loc 2 102 19
	ldd r20,Y+5
	ldd r21,Y+6
	ldd r22,Y+3
	ldd r23,Y+4
	ldd r24,Y+1
	ldd r25,Y+2
	ldi r16,0
	ldi r17,0
	ldi r18,0
	ldi r19,0
	rcall _ZN6Stream9findUntilEPcjS0_j
/* epilogue start */
	.loc 2 103 1
	adiw r28,6
	in __tmp_reg__,__SREG__
	cli
	out __SP_H__,r29
	out __SREG__,__tmp_reg__
	out __SP_L__,r28
	pop r29
	pop r28
	pop r17
	pop r16
	ret
	.cfi_endproc
.LFE117:
	.size	_ZN6Stream4findEPcj, .-_ZN6Stream4findEPcj
	.section	.text._ZN6Stream9findUntilEPcS0_,"ax",@progbits
.global	_ZN6Stream9findUntilEPcS0_
	.type	_ZN6Stream9findUntilEPcS0_, @function
_ZN6Stream9findUntilEPcS0_:
.LFB118:
	.loc 2 107 1
	.cfi_startproc
	push r16
	.cfi_def_cfa_offset 3
	.cfi_offset 16, -2
	push r17
	.cfi_def_cfa_offset 4
	.cfi_offset 17, -3
	push r28
	.cfi_def_cfa_offset 5
	.cfi_offset 28, -4
	push r29
	.cfi_def_cfa_offset 6
	.cfi_offset 29, -5
	rcall .
	rcall .
	rcall .
	.cfi_def_cfa_offset 12
	in r28,__SP_L__
	in r29,__SP_H__
	.cfi_def_cfa_register 28
/* prologue: function */
/* frame size = 6 */
/* stack size = 10 */
.L__stack_usage = 10
	std Y+2,r25
	std Y+1,r24
	std Y+4,r23
	std Y+3,r22
	std Y+6,r21
	std Y+5,r20
	.loc 2 108 19
	ldd r24,Y+5
	ldd r25,Y+6
	rcall strlen
	movw r16,r24
	ldd r24,Y+3
	ldd r25,Y+4
	rcall strlen
	movw r20,r24
	ldd r18,Y+5
	ldd r19,Y+6
	ldd r22,Y+3
	ldd r23,Y+4
	ldd r24,Y+1
	ldd r25,Y+2
	rcall _ZN6Stream9findUntilEPcjS0_j
/* epilogue start */
	.loc 2 109 1
	adiw r28,6
	in __tmp_reg__,__SREG__
	cli
	out __SP_H__,r29
	out __SREG__,__tmp_reg__
	out __SP_L__,r28
	pop r29
	pop r28
	pop r17
	pop r16
	ret
	.cfi_endproc
.LFE118:
	.size	_ZN6Stream9findUntilEPcS0_, .-_ZN6Stream9findUntilEPcS0_
	.section	.text._ZN6Stream9findUntilEPcjS0_j,"ax",@progbits
.global	_ZN6Stream9findUntilEPcjS0_j
	.type	_ZN6Stream9findUntilEPcjS0_j, @function
_ZN6Stream9findUntilEPcjS0_j:
.LFB119:
	.loc 2 115 1
	.cfi_startproc
	push r16
	.cfi_def_cfa_offset 3
	.cfi_offset 16, -2
	push r17
	.cfi_def_cfa_offset 4
	.cfi_offset 17, -3
	push r28
	.cfi_def_cfa_offset 5
	.cfi_offset 28, -4
	push r29
	.cfi_def_cfa_offset 6
	.cfi_offset 29, -5
	in r28,__SP_L__
	in r29,__SP_H__
	.cfi_def_cfa_register 28
	sbiw r28,28
	.cfi_def_cfa_offset 34
	in __tmp_reg__,__SREG__
	cli
	out __SP_H__,r29
	out __SREG__,__tmp_reg__
	out __SP_L__,r28
/* prologue: function */
/* frame size = 28 */
/* stack size = 32 */
.L__stack_usage = 32
	std Y+20,r25
	std Y+19,r24
	std Y+22,r23
	std Y+21,r22
	std Y+24,r21
	std Y+23,r20
	std Y+26,r19
	std Y+25,r18
	std Y+28,r17
	std Y+27,r16
.LBB2:
	.loc 2 116 3
	ldd r24,Y+25
	ldd r25,Y+26
	or r24,r25
	brne .L38
.LBB3:
	.loc 2 117 17
	ldi r18,lo8(6)
	movw r24,r28
	adiw r24,1
	movw r30,r24
	mov r19,r18
	0:
	st Z+,__zero_reg__
	dec r19
	brne 0b
	.loc 2 117 47
	ldd r24,Y+21
	ldd r25,Y+22
	std Y+2,r25
	std Y+1,r24
	ldd r24,Y+23
	ldd r25,Y+24
	std Y+4,r25
	std Y+3,r24
	.loc 2 118 21
	ldd r24,Y+19
	ldd r25,Y+20
	ldi r20,lo8(1)
	ldi r21,0
	movw r18,r28
	subi r18,-1
	sbci r19,-1
	movw r22,r18
	rcall _ZN6Stream9findMultiEPNS_11MultiTargetEi
	movw r18,r24
	.loc 2 118 42
	ldi r24,lo8(1)
	or r18,r19
	breq .L40
	ldi r24,0
	rjmp .L40
.L38:
.LBE3:
.LBB4:
	.loc 2 120 17
	ldi r18,lo8(12)
	movw r24,r28
	adiw r24,7
	movw r30,r24
	mov r19,r18
	0:
	st Z+,__zero_reg__
	dec r19
	brne 0b
	.loc 2 120 73
	ldd r24,Y+21
	ldd r25,Y+22
	std Y+8,r25
	std Y+7,r24
	ldd r24,Y+23
	ldd r25,Y+24
	std Y+10,r25
	std Y+9,r24
	ldd r24,Y+25
	ldd r25,Y+26
	std Y+14,r25
	std Y+13,r24
	ldd r24,Y+27
	ldd r25,Y+28
	std Y+16,r25
	std Y+15,r24
	.loc 2 121 21
	movw r18,r28
	subi r18,-7
	sbci r19,-1
	ldd r24,Y+19
	ldd r25,Y+20
	ldi r20,lo8(2)
	ldi r21,0
	movw r22,r18
	rcall _ZN6Stream9findMultiEPNS_11MultiTargetEi
	movw r18,r24
	.loc 2 121 42
	ldi r24,lo8(1)
	or r18,r19
	breq .L40
	ldi r24,0
.L40:
/* epilogue start */
.LBE4:
.LBE2:
	.loc 2 123 1
	adiw r28,28
	in __tmp_reg__,__SREG__
	cli
	out __SP_H__,r29
	out __SREG__,__tmp_reg__
	out __SP_L__,r28
	pop r29
	pop r28
	pop r17
	pop r16
	ret
	.cfi_endproc
.LFE119:
	.size	_ZN6Stream9findUntilEPcjS0_j, .-_ZN6Stream9findUntilEPcjS0_j
	.section	.text._ZN6Stream8parseIntE13LookaheadModec,"ax",@progbits
.global	_ZN6Stream8parseIntE13LookaheadModec
	.type	_ZN6Stream8parseIntE13LookaheadModec, @function
_ZN6Stream8parseIntE13LookaheadModec:
.LFB120:
	.loc 2 131 1
	.cfi_startproc
	push r28
	.cfi_def_cfa_offset 3
	.cfi_offset 28, -2
	push r29
	.cfi_def_cfa_offset 4
	.cfi_offset 29, -3
	in r28,__SP_L__
	in r29,__SP_H__
	.cfi_def_cfa_register 28
	sbiw r28,11
	.cfi_def_cfa_offset 15
	in __tmp_reg__,__SREG__
	cli
	out __SP_H__,r29
	out __SREG__,__tmp_reg__
	out __SP_L__,r28
/* prologue: function */
/* frame size = 11 */
/* stack size = 13 */
.L__stack_usage = 13
	std Y+9,r25
	std Y+8,r24
	std Y+10,r22
	std Y+11,r20
	.loc 2 132 8
	std Y+1,__zero_reg__
	.loc 2 133 8
	std Y+2,__zero_reg__
	std Y+3,__zero_reg__
	std Y+4,__zero_reg__
	std Y+5,__zero_reg__
	.loc 2 136 20
	ldd r24,Y+8
	ldd r25,Y+9
	ldi r20,0
	ldd r22,Y+10
	rcall _ZN6Stream13peekNextDigitE13LookaheadModeb
	std Y+7,r25
	std Y+6,r24
	.loc 2 138 3
	ldd r24,Y+6
	ldd r25,Y+7
	tst r25
	brge .L43
	.loc 2 139 12
	ldi r24,0
	ldi r25,0
	movw r26,r24
	rjmp .L44
.L43:
	.loc 2 142 10
	ldd r24,Y+11
	mov r24,r24
	ldi r25,0
	.loc 2 142 5
	ldd r18,Y+6
	ldd r19,Y+7
	cp r18,r24
	cpc r19,r25
	breq .L45
	.loc 2 144 10
	ldd r24,Y+6
	ldd r25,Y+7
	sbiw r24,45
	brne .L46
	.loc 2 145 18
	ldi r24,lo8(1)
	std Y+1,r24
	rjmp .L45
.L46:
	.loc 2 146 10
	ldd r24,Y+6
	ldd r25,Y+7
	sbiw r24,48
	brlt .L45
	.loc 2 146 22
	ldd r24,Y+6
	ldd r25,Y+7
	sbiw r24,58
	brge .L45
	.loc 2 147 21
	ldd r18,Y+2
	ldd r19,Y+3
	ldd r20,Y+4
	ldd r21,Y+5
	movw r26,r20
	movw r24,r18
	lsl r24
	rol r25
	rol r26
	rol r27
	lsl r24
	rol r25
	rol r26
	rol r27
	add r24,r18
	adc r25,r19
	adc r26,r20
	adc r27,r21
	lsl r24
	rol r25
	rol r26
	rol r27
	movw r18,r24
	movw r20,r26
	.loc 2 147 26
	ldd r24,Y+6
	ldd r25,Y+7
	mov __tmp_reg__,r25
	lsl r0
	sbc r26,r26
	sbc r27,r27
	add r24,r18
	adc r25,r19
	adc r26,r20
	adc r27,r21
	.loc 2 147 13
	sbiw r24,48
	sbc r26,__zero_reg__
	sbc r27,__zero_reg__
	std Y+2,r24
	std Y+3,r25
	std Y+4,r26
	std Y+5,r27
.L45:
	.loc 2 148 10
	ldd r24,Y+8
	ldd r25,Y+9
	movw r30,r24
	ld r24,Z
	ldd r25,Z+1
	adiw r24,10
	movw r30,r24
	ld r18,Z
	ldd r19,Z+1
	.loc 2 148 9
	ldd r24,Y+8
	ldd r25,Y+9
	movw r30,r18
	icall
.LVL3:
	.loc 2 149 18
	ldd r24,Y+8
	ldd r25,Y+9
	rcall _ZN6Stream9timedPeekEv
	std Y+7,r25
	std Y+6,r24
	.loc 2 151 33
	ldd r24,Y+6
	ldd r25,Y+7
	sbiw r24,48
	brlt .L47
	.loc 2 151 20
	ldd r24,Y+6
	ldd r25,Y+7
	sbiw r24,58
	brge .+2
	rjmp .L43
.L47:
	.loc 2 151 38
	ldd r24,Y+11
	mov r24,r24
	ldi r25,0
	.loc 2 151 33
	ldd r18,Y+6
	ldd r19,Y+7
	cp r18,r24
	cpc r19,r25
	brne .L49
	.loc 2 141 3
	rjmp .L43
.L49:
	.loc 2 153 3
	ldd r24,Y+1
	tst r24
	breq .L50
	.loc 2 154 11
	ldd r24,Y+2
	ldd r25,Y+3
	ldd r26,Y+4
	ldd r27,Y+5
	com r27
	com r26
	com r25
	neg r24
	sbci r25,lo8(-1)
	sbci r26,lo8(-1)
	sbci r27,lo8(-1)
	std Y+2,r24
	std Y+3,r25
	std Y+4,r26
	std Y+5,r27
.L50:
	.loc 2 155 10
	ldd r24,Y+2
	ldd r25,Y+3
	ldd r26,Y+4
	ldd r27,Y+5
.L44:
	.loc 2 156 1
	movw r22,r24
	movw r24,r26
/* epilogue start */
	adiw r28,11
	in __tmp_reg__,__SREG__
	cli
	out __SP_H__,r29
	out __SREG__,__tmp_reg__
	out __SP_L__,r28
	pop r29
	pop r28
	ret
	.cfi_endproc
.LFE120:
	.size	_ZN6Stream8parseIntE13LookaheadModec, .-_ZN6Stream8parseIntE13LookaheadModec
.global	__mulsf3
.global	__floatsisf
	.section	.text._ZN6Stream10parseFloatE13LookaheadModec,"ax",@progbits
.global	_ZN6Stream10parseFloatE13LookaheadModec
	.type	_ZN6Stream10parseFloatE13LookaheadModec, @function
_ZN6Stream10parseFloatE13LookaheadModec:
.LFB121:
	.loc 2 160 1
	.cfi_startproc
	push r28
	.cfi_def_cfa_offset 3
	.cfi_offset 28, -2
	push r29
	.cfi_def_cfa_offset 4
	.cfi_offset 29, -3
	in r28,__SP_L__
	in r29,__SP_H__
	.cfi_def_cfa_register 28
	sbiw r28,16
	.cfi_def_cfa_offset 20
	in __tmp_reg__,__SREG__
	cli
	out __SP_H__,r29
	out __SREG__,__tmp_reg__
	out __SP_L__,r28
/* prologue: function */
/* frame size = 16 */
/* stack size = 18 */
.L__stack_usage = 18
	std Y+14,r25
	std Y+13,r24
	std Y+15,r22
	std Y+16,r20
	.loc 2 161 8
	std Y+1,__zero_reg__
	.loc 2 162 8
	std Y+2,__zero_reg__
	.loc 2 163 8
	std Y+3,__zero_reg__
	std Y+4,__zero_reg__
	std Y+5,__zero_reg__
	std Y+6,__zero_reg__
	.loc 2 165 9
	ldi r24,0
	ldi r25,0
	ldi r26,lo8(-128)
	ldi r27,lo8(63)
	std Y+9,r24
	std Y+10,r25
	std Y+11,r26
	std Y+12,r27
	.loc 2 167 20
	ldd r24,Y+13
	ldd r25,Y+14
	ldi r20,lo8(1)
	ldd r22,Y+15
	rcall _ZN6Stream13peekNextDigitE13LookaheadModeb
	std Y+8,r25
	std Y+7,r24
	.loc 2 169 3
	ldd r24,Y+7
	ldd r25,Y+8
	tst r25
	brge .L52
	.loc 2 170 12
	ldi r24,0
	ldi r25,0
	movw r26,r24
	rjmp .L53
.L52:
	.loc 2 173 10
	ldd r24,Y+16
	mov r24,r24
	ldi r25,0
	.loc 2 173 5
	ldd r18,Y+7
	ldd r19,Y+8
	cp r18,r24
	cpc r19,r25
	brne .+2
	rjmp .L54
	.loc 2 175 10
	ldd r24,Y+7
	ldd r25,Y+8
	sbiw r24,45
	brne .L55
	.loc 2 176 18
	ldi r24,lo8(1)
	std Y+1,r24
	rjmp .L54
.L55:
	.loc 2 177 10
	ldd r24,Y+7
	ldd r25,Y+8
	sbiw r24,46
	brne .L56
	.loc 2 178 18
	ldi r24,lo8(1)
	std Y+2,r24
	rjmp .L54
.L56:
	.loc 2 179 10
	ldd r24,Y+7
	ldd r25,Y+8
	sbiw r24,48
	brge .+2
	rjmp .L54
	.loc 2 179 22
	ldd r24,Y+7
	ldd r25,Y+8
	sbiw r24,58
	brge .L54
	.loc 2 180 21
	ldd r18,Y+3
	ldd r19,Y+4
	ldd r20,Y+5
	ldd r21,Y+6
	movw r26,r20
	movw r24,r18
	lsl r24
	rol r25
	rol r26
	rol r27
	lsl r24
	rol r25
	rol r26
	rol r27
	add r24,r18
	adc r25,r19
	adc r26,r20
	adc r27,r21
	lsl r24
	rol r25
	rol r26
	rol r27
	movw r18,r24
	movw r20,r26
	.loc 2 180 26
	ldd r24,Y+7
	ldd r25,Y+8
	mov __tmp_reg__,r25
	lsl r0
	sbc r26,r26
	sbc r27,r27
	add r24,r18
	adc r25,r19
	adc r26,r20
	adc r27,r21
	.loc 2 180 13
	sbiw r24,48
	sbc r26,__zero_reg__
	sbc r27,__zero_reg__
	std Y+3,r24
	std Y+4,r25
	std Y+5,r26
	std Y+6,r27
	.loc 2 181 7
	ldd r24,Y+2
	tst r24
	breq .L54
	.loc 2 182 19
	ldi r18,lo8(-51)
	ldi r19,lo8(-52)
	ldi r20,lo8(-52)
	ldi r21,lo8(61)
	ldd r22,Y+9
	ldd r23,Y+10
	ldd r24,Y+11
	ldd r25,Y+12
	rcall __mulsf3
.LVL4:
	movw r26,r24
	movw r24,r22
	std Y+9,r24
	std Y+10,r25
	std Y+11,r26
	std Y+12,r27
.L54:
	.loc 2 184 10
	ldd r24,Y+13
	ldd r25,Y+14
	movw r30,r24
	ld r24,Z
	ldd r25,Z+1
	adiw r24,10
	movw r30,r24
	ld r18,Z
	ldd r19,Z+1
	.loc 2 184 9
	ldd r24,Y+13
	ldd r25,Y+14
	movw r30,r18
	icall
.LVL5:
	.loc 2 185 18
	ldd r24,Y+13
	ldd r25,Y+14
	rcall _ZN6Stream9timedPeekEv
	std Y+8,r25
	std Y+7,r24
	.loc 2 187 62
	ldd r24,Y+7
	ldd r25,Y+8
	sbiw r24,48
	brlt .L57
	.loc 2 187 20
	ldd r24,Y+7
	ldd r25,Y+8
	sbiw r24,58
	brge .+2
	rjmp .L52
.L57:
	.loc 2 187 33
	ldd r24,Y+7
	ldd r25,Y+8
	sbiw r24,46
	brne .L59
	.loc 2 187 46
	ldd r24,Y+2
	tst r24
	brne .+2
	rjmp .L52
.L59:
	.loc 2 187 67
	ldd r24,Y+16
	mov r24,r24
	ldi r25,0
	.loc 2 187 62
	ldd r18,Y+7
	ldd r19,Y+8
	cp r18,r24
	cpc r19,r25
	brne .L60
	.loc 2 172 3
	rjmp .L52
.L60:
	.loc 2 189 3
	ldd r24,Y+1
	tst r24
	breq .L61
	.loc 2 190 11
	ldd r24,Y+3
	ldd r25,Y+4
	ldd r26,Y+5
	ldd r27,Y+6
	com r27
	com r26
	com r25
	neg r24
	sbci r25,lo8(-1)
	sbci r26,lo8(-1)
	sbci r27,lo8(-1)
	std Y+3,r24
	std Y+4,r25
	std Y+5,r26
	std Y+6,r27
.L61:
	.loc 2 191 3
	ldd r24,Y+2
	tst r24
	breq .L62
	.loc 2 192 18
	ldd r22,Y+3
	ldd r23,Y+4
	ldd r24,Y+5
	ldd r25,Y+6
	rcall __floatsisf
.LVL6:
	movw r26,r24
	movw r24,r22
	.loc 2 192 20
	ldd r18,Y+9
	ldd r19,Y+10
	ldd r20,Y+11
	ldd r21,Y+12
	movw r22,r24
	movw r24,r26
	rcall __mulsf3
.LVL7:
	movw r26,r24
	movw r24,r22
	rjmp .L53
.L62:
	.loc 2 194 12
	ldd r22,Y+3
	ldd r23,Y+4
	ldd r24,Y+5
	ldd r25,Y+6
	rcall __floatsisf
.LVL8:
	movw r26,r24
	movw r24,r22
.L53:
	.loc 2 195 1
	movw r22,r24
	movw r24,r26
/* epilogue start */
	adiw r28,16
	in __tmp_reg__,__SREG__
	cli
	out __SP_H__,r29
	out __SREG__,__tmp_reg__
	out __SP_L__,r28
	pop r29
	pop r28
	ret
	.cfi_endproc
.LFE121:
	.size	_ZN6Stream10parseFloatE13LookaheadModec, .-_ZN6Stream10parseFloatE13LookaheadModec
	.section	.text._ZN6Stream9readBytesEPcj,"ax",@progbits
.global	_ZN6Stream9readBytesEPcj
	.type	_ZN6Stream9readBytesEPcj, @function
_ZN6Stream9readBytesEPcj:
.LFB122:
	.loc 2 203 1
	.cfi_startproc
	push r28
	.cfi_def_cfa_offset 3
	.cfi_offset 28, -2
	push r29
	.cfi_def_cfa_offset 4
	.cfi_offset 29, -3
	in r28,__SP_L__
	in r29,__SP_H__
	.cfi_def_cfa_register 28
	sbiw r28,10
	.cfi_def_cfa_offset 14
	in __tmp_reg__,__SREG__
	cli
	out __SP_H__,r29
	out __SREG__,__tmp_reg__
	out __SP_L__,r28
/* prologue: function */
/* frame size = 10 */
/* stack size = 12 */
.L__stack_usage = 12
	std Y+6,r25
	std Y+5,r24
	std Y+8,r23
	std Y+7,r22
	std Y+10,r21
	std Y+9,r20
	.loc 2 204 10
	std Y+2,__zero_reg__
	std Y+1,__zero_reg__
.L66:
	.loc 2 205 16
	ldd r18,Y+1
	ldd r19,Y+2
	ldd r24,Y+9
	ldd r25,Y+10
	cp r18,r24
	cpc r19,r25
	brsh .L64
.LBB5:
	.loc 2 206 22
	ldd r24,Y+5
	ldd r25,Y+6
	rcall _ZN6Stream9timedReadEv
	std Y+4,r25
	std Y+3,r24
	.loc 2 207 5
	ldd r24,Y+3
	ldd r25,Y+4
	tst r25
	brlt .L68
	.loc 2 208 12
	ldd r24,Y+7
	ldd r25,Y+8
	movw r18,r24
	subi r18,-1
	sbci r19,-1
	std Y+8,r19
	std Y+7,r18
	.loc 2 208 15
	ldd r18,Y+3
	movw r30,r24
	st Z,r18
	.loc 2 209 10
	ldd r24,Y+1
	ldd r25,Y+2
	adiw r24,1
	std Y+2,r25
	std Y+1,r24
.LBE5:
	.loc 2 205 3
	rjmp .L66
.L68:
.LBB6:
	.loc 2 207 16
	nop
.L64:
.LBE6:
	.loc 2 211 10
	ldd r24,Y+1
	ldd r25,Y+2
/* epilogue start */
	.loc 2 212 1
	adiw r28,10
	in __tmp_reg__,__SREG__
	cli
	out __SP_H__,r29
	out __SREG__,__tmp_reg__
	out __SP_L__,r28
	pop r29
	pop r28
	ret
	.cfi_endproc
.LFE122:
	.size	_ZN6Stream9readBytesEPcj, .-_ZN6Stream9readBytesEPcj
	.section	.text._ZN6Stream14readBytesUntilEcPcj,"ax",@progbits
.global	_ZN6Stream14readBytesUntilEcPcj
	.type	_ZN6Stream14readBytesUntilEcPcj, @function
_ZN6Stream14readBytesUntilEcPcj:
.LFB123:
	.loc 2 220 1
	.cfi_startproc
	push r28
	.cfi_def_cfa_offset 3
	.cfi_offset 28, -2
	push r29
	.cfi_def_cfa_offset 4
	.cfi_offset 29, -3
	in r28,__SP_L__
	in r29,__SP_H__
	.cfi_def_cfa_register 28
	sbiw r28,11
	.cfi_def_cfa_offset 15
	in __tmp_reg__,__SREG__
	cli
	out __SP_H__,r29
	out __SREG__,__tmp_reg__
	out __SP_L__,r28
/* prologue: function */
/* frame size = 11 */
/* stack size = 13 */
.L__stack_usage = 13
	std Y+6,r25
	std Y+5,r24
	std Y+7,r22
	std Y+9,r21
	std Y+8,r20
	std Y+11,r19
	std Y+10,r18
	.loc 2 221 3
	ldd r24,Y+10
	ldd r25,Y+11
	or r24,r25
	brne .L70
	.loc 2 221 26
	ldi r24,0
	ldi r25,0
	rjmp .L71
.L70:
	.loc 2 222 10
	std Y+2,__zero_reg__
	std Y+1,__zero_reg__
.L73:
	.loc 2 223 16
	ldd r18,Y+1
	ldd r19,Y+2
	ldd r24,Y+10
	ldd r25,Y+11
	cp r18,r24
	cpc r19,r25
	brsh .L72
.LBB7:
	.loc 2 224 22
	ldd r24,Y+5
	ldd r25,Y+6
	rcall _ZN6Stream9timedReadEv
	std Y+4,r25
	std Y+3,r24
	.loc 2 225 5
	ldd r24,Y+3
	ldd r25,Y+4
	tst r25
	brlt .L72
	.loc 2 225 20
	ldd r24,Y+7
	mov r24,r24
	ldi r25,0
	.loc 2 225 15
	ldd r18,Y+3
	ldd r19,Y+4
	cp r18,r24
	cpc r19,r25
	breq .L72
	.loc 2 226 12
	ldd r24,Y+8
	ldd r25,Y+9
	movw r18,r24
	subi r18,-1
	sbci r19,-1
	std Y+9,r19
	std Y+8,r18
	.loc 2 226 15
	ldd r18,Y+3
	movw r30,r24
	st Z,r18
	.loc 2 227 10
	ldd r24,Y+1
	ldd r25,Y+2
	adiw r24,1
	std Y+2,r25
	std Y+1,r24
.LBE7:
	.loc 2 223 3
	rjmp .L73
.L72:
	.loc 2 229 10
	ldd r24,Y+1
	ldd r25,Y+2
.L71:
/* epilogue start */
	.loc 2 230 1
	adiw r28,11
	in __tmp_reg__,__SREG__
	cli
	out __SP_H__,r29
	out __SREG__,__tmp_reg__
	out __SP_L__,r28
	pop r29
	pop r28
	ret
	.cfi_endproc
.LFE123:
	.size	_ZN6Stream14readBytesUntilEcPcj, .-_ZN6Stream14readBytesUntilEcPcj
	.section	.rodata
.LC0:
	.string	""
	.section	.text._ZN6Stream10readStringEv,"ax",@progbits
.global	_ZN6Stream10readStringEv
	.type	_ZN6Stream10readStringEv, @function
_ZN6Stream10readStringEv:
.LFB124:
	.loc 2 233 1
	.cfi_startproc
	push r28
	.cfi_def_cfa_offset 3
	.cfi_offset 28, -2
	push r29
	.cfi_def_cfa_offset 4
	.cfi_offset 29, -3
	rcall .
	rcall .
	rcall .
	.cfi_def_cfa_offset 10
	in r28,__SP_L__
	in r29,__SP_H__
	.cfi_def_cfa_register 28
/* prologue: function */
/* frame size = 6 */
/* stack size = 8 */
.L__stack_usage = 8
	std Y+4,r25
	std Y+3,r24
	std Y+6,r23
	std Y+5,r22
	.loc 2 234 10
	ldd r24,Y+3
	ldd r25,Y+4
	ldi r22,lo8(.LC0)
	ldi r23,hi8(.LC0)
	rcall _ZN6StringC1EPKc
	.loc 2 235 20
	ldd r24,Y+5
	ldd r25,Y+6
	rcall _ZN6Stream9timedReadEv
	std Y+2,r25
	std Y+1,r24
.L76:
	.loc 2 236 12
	ldd r24,Y+1
	ldd r25,Y+2
	tst r25
	brlt .L78
	.loc 2 238 18
	ldd r18,Y+1
	ldd r24,Y+3
	ldd r25,Y+4
	mov r22,r18
	rcall _ZN6StringpLEc
	.loc 2 239 18
	ldd r24,Y+5
	ldd r25,Y+6
	rcall _ZN6Stream9timedReadEv
	std Y+2,r25
	std Y+1,r24
	.loc 2 236 3
	rjmp .L76
.L78:
	.loc 2 241 10
	nop
	.loc 2 242 1
	ldd r24,Y+3
	ldd r25,Y+4
/* epilogue start */
	adiw r28,6
	in __tmp_reg__,__SREG__
	cli
	out __SP_H__,r29
	out __SREG__,__tmp_reg__
	out __SP_L__,r28
	pop r29
	pop r28
	ret
	.cfi_endproc
.LFE124:
	.size	_ZN6Stream10readStringEv, .-_ZN6Stream10readStringEv
	.section	.text._ZN6Stream15readStringUntilEc,"ax",@progbits
.global	_ZN6Stream15readStringUntilEc
	.type	_ZN6Stream15readStringUntilEc, @function
_ZN6Stream15readStringUntilEc:
.LFB125:
	.loc 2 245 1
	.cfi_startproc
	push r28
	.cfi_def_cfa_offset 3
	.cfi_offset 28, -2
	push r29
	.cfi_def_cfa_offset 4
	.cfi_offset 29, -3
	rcall .
	rcall .
	rcall .
	push __tmp_reg__
	.cfi_def_cfa_offset 11
	in r28,__SP_L__
	in r29,__SP_H__
	.cfi_def_cfa_register 28
/* prologue: function */
/* frame size = 7 */
/* stack size = 9 */
.L__stack_usage = 9
	std Y+4,r25
	std Y+3,r24
	std Y+6,r23
	std Y+5,r22
	std Y+7,r20
	.loc 2 246 10
	ldd r24,Y+3
	ldd r25,Y+4
	ldi r22,lo8(.LC0)
	ldi r23,hi8(.LC0)
	rcall _ZN6StringC1EPKc
	.loc 2 247 20
	ldd r24,Y+5
	ldd r25,Y+6
	rcall _ZN6Stream9timedReadEv
	std Y+2,r25
	std Y+1,r24
.L81:
	.loc 2 248 17
	ldd r24,Y+1
	ldd r25,Y+2
	tst r25
	brlt .L83
	.loc 2 248 22
	ldd r24,Y+7
	mov r24,r24
	ldi r25,0
	.loc 2 248 17
	ldd r18,Y+1
	ldd r19,Y+2
	cp r18,r24
	cpc r19,r25
	breq .L83
	.loc 2 250 18
	ldd r18,Y+1
	ldd r24,Y+3
	ldd r25,Y+4
	mov r22,r18
	rcall _ZN6StringpLEc
	.loc 2 251 18
	ldd r24,Y+5
	ldd r25,Y+6
	rcall _ZN6Stream9timedReadEv
	std Y+2,r25
	std Y+1,r24
	.loc 2 248 3
	rjmp .L81
.L83:
	.loc 2 253 10
	nop
	.loc 2 254 1
	ldd r24,Y+3
	ldd r25,Y+4
/* epilogue start */
	adiw r28,7
	in __tmp_reg__,__SREG__
	cli
	out __SP_H__,r29
	out __SREG__,__tmp_reg__
	out __SP_L__,r28
	pop r29
	pop r28
	ret
	.cfi_endproc
.LFE125:
	.size	_ZN6Stream15readStringUntilEc, .-_ZN6Stream15readStringUntilEc
	.section	.text._ZN6Stream9findMultiEPNS_11MultiTargetEi,"ax",@progbits
.global	_ZN6Stream9findMultiEPNS_11MultiTargetEi
	.type	_ZN6Stream9findMultiEPNS_11MultiTargetEi, @function
_ZN6Stream9findMultiEPNS_11MultiTargetEi:
.LFB126:
	.loc 2 256 73
	.cfi_startproc
	push r28
	.cfi_def_cfa_offset 3
	.cfi_offset 28, -2
	push r29
	.cfi_def_cfa_offset 4
	.cfi_offset 29, -3
	in r28,__SP_L__
	in r29,__SP_H__
	.cfi_def_cfa_register 28
	sbiw r28,18
	.cfi_def_cfa_offset 22
	in __tmp_reg__,__SREG__
	cli
	out __SP_H__,r29
	out __SREG__,__tmp_reg__
	out __SP_L__,r28
/* prologue: function */
/* frame size = 18 */
/* stack size = 20 */
.L__stack_usage = 20
	std Y+14,r25
	std Y+13,r24
	std Y+16,r23
	std Y+15,r22
	std Y+18,r21
	std Y+17,r20
.LBB8:
	.loc 2 259 28
	ldd r24,Y+15
	ldd r25,Y+16
	std Y+2,r25
	std Y+1,r24
.L88:
	.loc 2 259 52
	ldd r18,Y+17
	ldd r19,Y+18
	movw r24,r18
	lsl r24
	rol r25
	add r24,r18
	adc r25,r19
	lsl r24
	rol r25
	movw r18,r24
	ldd r24,Y+15
	ldd r25,Y+16
	add r24,r18
	adc r25,r19
	.loc 2 259 43
	ldd r18,Y+1
	ldd r19,Y+2
	cp r18,r24
	cpc r19,r25
	brsh .L85
	.loc 2 260 12
	ldd r24,Y+1
	ldd r25,Y+2
	movw r30,r24
	ldd r24,Z+2
	ldd r25,Z+3
	.loc 2 260 5
	or r24,r25
	brne .L86
	.loc 2 261 16
	ldd r18,Y+1
	ldd r19,Y+2
	ldd r24,Y+15
	ldd r25,Y+16
	movw r20,r18
	sub r20,r24
	sbc r21,r25
	movw r24,r20
	.loc 2 261 18
	movw r18,r24
	asr r19
	ror r18
	ldi r24,lo8(-85)
	ldi r25,lo8(-86)
	mul r18,r24
	movw r20,r0
	mul r18,r25
	add r21,r0
	mul r19,r24
	add r21,r0
	clr r1
	movw r24,r20
	rjmp .L87
.L86:
	.loc 2 259 3
	ldd r24,Y+1
	ldd r25,Y+2
	adiw r24,6
	std Y+2,r25
	std Y+1,r24
	rjmp .L88
.L85:
.LBE8:
.LBB9:
	.loc 2 265 22
	ldd r24,Y+13
	ldd r25,Y+14
	rcall _ZN6Stream9timedReadEv
	std Y+8,r25
	std Y+7,r24
	.loc 2 266 5
	ldd r24,Y+7
	ldd r25,Y+8
	tst r25
	brge .L89
	.loc 2 267 15
	ldi r24,lo8(-1)
	ldi r25,lo8(-1)
	rjmp .L87
.L89:
.LBB10:
	.loc 2 269 30
	ldd r24,Y+15
	ldd r25,Y+16
	std Y+4,r25
	std Y+3,r24
.L103:
	.loc 2 269 54
	ldd r18,Y+17
	ldd r19,Y+18
	movw r24,r18
	lsl r24
	rol r25
	add r24,r18
	adc r25,r19
	lsl r24
	rol r25
	movw r18,r24
	ldd r24,Y+15
	ldd r25,Y+16
	add r24,r18
	adc r25,r19
	.loc 2 269 45
	ldd r18,Y+3
	ldd r19,Y+4
	cp r18,r24
	cpc r19,r25
	brsh .L85
.LBB11:
	.loc 2 271 19
	ldd r24,Y+3
	ldd r25,Y+4
	movw r30,r24
	ld r18,Z
	ldd r19,Z+1
	.loc 2 271 26
	ldd r24,Y+3
	ldd r25,Y+4
	movw r30,r24
	ldd r24,Z+4
	ldd r25,Z+5
	.loc 2 271 31
	add r24,r18
	adc r25,r19
	movw r30,r24
	ld r24,Z
	mov r24,r24
	ldi r25,0
	.loc 2 271 7
	ldd r18,Y+7
	ldd r19,Y+8
	cp r18,r24
	cpc r19,r25
	brne .L91
	.loc 2 272 18
	ldd r24,Y+3
	ldd r25,Y+4
	movw r30,r24
	ldd r24,Z+4
	ldd r25,Z+5
	.loc 2 272 13
	movw r18,r24
	subi r18,-1
	sbci r19,-1
	.loc 2 272 24
	ldd r24,Y+3
	ldd r25,Y+4
	movw r30,r24
	std Z+5,r19
	std Z+4,r18
	.loc 2 272 18
	ldd r24,Y+3
	ldd r25,Y+4
	movw r30,r24
	ldd r18,Z+4
	ldd r19,Z+5
	.loc 2 272 30
	ldd r24,Y+3
	ldd r25,Y+4
	movw r30,r24
	ldd r24,Z+2
	ldd r25,Z+3
	.loc 2 272 24
	ldi r20,lo8(1)
	cp r18,r24
	cpc r19,r25
	breq .L92
	ldi r20,0
.L92:
	.loc 2 272 9
	tst r20
	brne .+2
	rjmp .L104
	.loc 2 273 20
	ldd r18,Y+3
	ldd r19,Y+4
	ldd r24,Y+15
	ldd r25,Y+16
	movw r20,r18
	sub r20,r24
	sbc r21,r25
	movw r24,r20
	.loc 2 273 22
	movw r18,r24
	asr r19
	ror r18
	ldi r24,lo8(-85)
	ldi r25,lo8(-86)
	mul r18,r24
	movw r20,r0
	mul r18,r25
	add r21,r0
	mul r19,r24
	add r21,r0
	clr r1
	movw r24,r20
	rjmp .L87
.L91:
	.loc 2 282 14
	ldd r24,Y+3
	ldd r25,Y+4
	movw r30,r24
	ldd r24,Z+4
	ldd r25,Z+5
	.loc 2 282 7
	or r24,r25
	brne .+2
	rjmp .L105
	.loc 2 285 26
	ldd r24,Y+3
	ldd r25,Y+4
	movw r30,r24
	ldd r24,Z+4
	ldd r25,Z+5
	.loc 2 285 11
	std Y+10,r25
	std Y+9,r24
.L102:
.LBB12:
	.loc 2 287 14
	ldd r24,Y+3
	ldd r25,Y+4
	movw r30,r24
	ldd r24,Z+4
	ldd r25,Z+5
	.loc 2 287 9
	movw r18,r24
	subi r18,1
	sbc r19,__zero_reg__
	ldd r24,Y+3
	ldd r25,Y+4
	movw r30,r24
	std Z+5,r19
	std Z+4,r18
	.loc 2 289 21
	ldd r24,Y+3
	ldd r25,Y+4
	movw r30,r24
	ld r18,Z
	ldd r19,Z+1
	.loc 2 289 28
	ldd r24,Y+3
	ldd r25,Y+4
	movw r30,r24
	ldd r24,Z+4
	ldd r25,Z+5
	.loc 2 289 33
	add r24,r18
	adc r25,r19
	movw r30,r24
	ld r24,Z
	mov r24,r24
	ldi r25,0
	.loc 2 289 9
	ldd r18,Y+7
	ldd r19,Y+8
	cp r18,r24
	cpc r19,r25
	breq .+2
	rjmp .L106
	.loc 2 293 16
	ldd r24,Y+3
	ldd r25,Y+4
	movw r30,r24
	ldd r24,Z+4
	ldd r25,Z+5
	.loc 2 293 9
	or r24,r25
	brne .L98
	.loc 2 294 14
	ldd r24,Y+3
	ldd r25,Y+4
	movw r30,r24
	ldd r24,Z+4
	ldd r25,Z+5
	.loc 2 294 19
	movw r18,r24
	subi r18,-1
	sbci r19,-1
	ldd r24,Y+3
	ldd r25,Y+4
	movw r30,r24
	std Z+5,r19
	std Z+4,r18
	.loc 2 295 11
	rjmp .L94
.L98:
	.loc 2 299 30
	ldd r18,Y+9
	ldd r19,Y+10
	.loc 2 299 35
	ldd r24,Y+3
	ldd r25,Y+4
	movw r30,r24
	ldd r24,Z+4
	ldd r25,Z+5
	.loc 2 299 30
	movw r20,r18
	sub r20,r24
	sbc r21,r25
	movw r24,r20
	.loc 2 299 13
	std Y+12,r25
	std Y+11,r24
	.loc 2 301 16
	std Y+6,__zero_reg__
	std Y+5,__zero_reg__
.L101:
	.loc 2 301 28
	ldd r24,Y+3
	ldd r25,Y+4
	movw r30,r24
	ldd r24,Z+4
	ldd r25,Z+5
	.loc 2 301 23
	ldd r18,Y+5
	ldd r19,Y+6
	cp r18,r24
	cpc r19,r25
	brsh .L99
	.loc 2 302 18
	ldd r24,Y+3
	ldd r25,Y+4
	movw r30,r24
	ld r18,Z
	ldd r19,Z+1
	.loc 2 302 23
	ldd r24,Y+5
	ldd r25,Y+6
	add r24,r18
	adc r25,r19
	movw r30,r24
	ld r22,Z
	.loc 2 302 31
	ldd r24,Y+3
	ldd r25,Y+4
	movw r30,r24
	ld r18,Z
	ldd r19,Z+1
	.loc 2 302 37
	ldd r20,Y+11
	ldd r21,Y+12
	ldd r24,Y+5
	ldd r25,Y+6
	add r24,r20
	adc r25,r21
	.loc 2 302 43
	add r24,r18
	adc r25,r19
	movw r30,r24
	ld r24,Z
	.loc 2 302 11
	cp r22,r24
	brne .L107
	.loc 2 301 9
	ldd r24,Y+5
	ldd r25,Y+6
	adiw r24,1
	std Y+6,r25
	std Y+5,r24
	rjmp .L101
.L107:
	.loc 2 303 13
	nop
.L99:
	.loc 2 308 21
	ldd r24,Y+3
	ldd r25,Y+4
	movw r30,r24
	ldd r24,Z+4
	ldd r25,Z+5
	.loc 2 308 9
	ldd r18,Y+5
	ldd r19,Y+6
	cp r18,r24
	cpc r19,r25
	brne .L97
	.loc 2 309 14
	ldd r24,Y+3
	ldd r25,Y+4
	movw r30,r24
	ldd r24,Z+4
	ldd r25,Z+5
	.loc 2 309 19
	movw r18,r24
	subi r18,-1
	sbci r19,-1
	ldd r24,Y+3
	ldd r25,Y+4
	movw r30,r24
	std Z+5,r19
	std Z+4,r18
	.loc 2 310 11
	rjmp .L94
.L106:
	.loc 2 290 11
	nop
.L97:
.LBE12:
	.loc 2 314 19
	ldd r24,Y+3
	ldd r25,Y+4
	movw r30,r24
	ldd r24,Z+4
	ldd r25,Z+5
	or r24,r25
	breq .L94
	.loc 2 286 7
	rjmp .L102
.L104:
	.loc 2 275 11
	nop
	rjmp .L94
.L105:
	.loc 2 283 9
	nop
.L94:
.LBE11:
	.loc 2 269 5
	ldd r24,Y+3
	ldd r25,Y+4
	adiw r24,6
	std Y+4,r25
	std Y+3,r24
	rjmp .L103
.L87:
/* epilogue start */
.LBE10:
.LBE9:
	.loc 2 319 1
	adiw r28,18
	in __tmp_reg__,__SREG__
	cli
	out __SP_H__,r29
	out __SREG__,__tmp_reg__
	out __SP_L__,r28
	pop r29
	pop r28
	ret
	.cfi_endproc
.LFE126:
	.size	_ZN6Stream9findMultiEPNS_11MultiTargetEi, .-_ZN6Stream9findMultiEPNS_11MultiTargetEi
	.text
.Letext0:
	.file 3 "/usr/local/avr/avr/include/stdlib.h"
	.file 4 "/usr/local/avr/lib/gcc/avr/8.2.0/include/stddef.h"
	.file 5 "/usr/local/avr/avr/include/stdint.h"
	.file 6 "/data/git/ECA-Arduino-Project/SoftwareSerial/Arduino.h"
	.file 7 "/usr/local/avr/avr/include/stdio.h"
	.file 8 "/data/git/ECA-Arduino-Project/SoftwareSerial/Stream.h"
	.file 9 "/data/git/ECA-Arduino-Project/SoftwareSerial/HardwareSerial.h"
	.file 10 "/data/git/ECA-Arduino-Project/SoftwareSerial/Print.h"
	.file 11 "/data/git/ECA-Arduino-Project/SoftwareSerial/pins_arduino.h"